(lp0
(lp1
F-10.25
aF8.5
aI1349
aI1512
aa(lp2
F-10.25
aF8.75
aI1346
aI1494
aa(lp3
F-10.25
aF9.25
aI1340
aI1458
aa(lp4
F-10.25
aF9.5
aI1338
aI1439
aa(lp5
F-10.25
aF9.75
aI1336
aI1421
aa(lp6
F-10.25
aF10.0
aI1335
aI1401
aa(lp7
F-10.25
aF10.5
aI1334
aI1361
aa(lp8
F-10.25
aF10.75
aI1335
aI1339
aa(lp9
F-10.25
aF11.0
aI1336
aI1318
aa(lp10
F-10.25
aF11.25
aI1337
aI1296
aa(lp11
F-10.25
aF11.75
aI1341
aI1251
aa(lp12
F-10.25
aF12.0
aI1344
aI1227
aa(lp13
F-10.0
aF7.75
aI1343
aI1581
aa(lp14
F-10.0
aF8.0
aI1338
aI1565
aa(lp15
F-10.0
aF8.5
aI1329
aI1531
aa(lp16
F-10.0
aF8.75
aI1325
aI1514
aa(lp17
F-10.0
aF9.25
aI1319
aI1479
aa(lp18
F-10.0
aF9.5
aI1317
aI1460
aa(lp19
F-10.0
aF9.75
aI1316
aI1440
aa(lp20
F-10.0
aF10.25
aI1314
aI1401
aa(lp21
F-10.0
aF10.5
aI1314
aI1380
aa(lp22
F-10.0
aF10.75
aI1314
aI1360
aa(lp23
F-10.0
aF11.0
aI1315
aI1338
aa(lp24
F-10.0
aF11.5
aI1318
aI1294
aa(lp25
F-10.0
aF11.75
aI1321
aI1270
aa(lp26
F-10.0
aF12.25
aI1327
aI1223
aa(lp27
F-10.0
aF12.5
aI1331
aI1198
aa(lp28
F-10.0
aF12.75
aI1335
aI1173
aa(lp29
F-10.0
aF13.0
aI1340
aI1147
aa(lp30
F-9.75
aF7.25
aI1334
aI1633
aa(lp31
F-9.75
aF7.5
aI1328
aI1617
aa(lp32
F-9.75
aF8.0
aI1317
aI1585
aa(lp33
F-9.75
aF8.25
aI1312
aI1569
aa(lp34
F-9.75
aF8.5
aI1308
aI1552
aa(lp35
F-9.75
aF9.25
aI1299
aI1498
aa(lp36
F-9.75
aF9.75
aI1295
aI1460
aa(lp37
F-9.75
aF10.0
aI1294
aI1440
aa(lp38
F-9.75
aF10.25
aI1293
aI1421
aa(lp39
F-9.75
aF10.5
aI1293
aI1400
aa(lp40
F-9.75
aF11.5
aI1298
aI1313
aa(lp41
F-9.75
aF11.75
aI1300
aI1290
aa(lp42
F-9.75
aF12.0
aI1303
aI1267
aa(lp43
F-9.75
aF12.25
aI1306
aI1243
aa(lp44
F-9.75
aF12.5
aI1310
aI1218
aa(lp45
F-9.75
aF13.25
aI1325
aI1140
aa(lp46
F-9.75
aF13.5
aI1331
aI1113
aa(lp47
F-9.75
aF14.0
aI1345
aI1056
aa(lp48
F-9.5
aF6.25
aI1345
aI1710
aa(lp49
F-9.5
aF6.75
aI1328
aI1682
aa(lp50
F-9.5
aF7.5
aI1307
aI1637
aa(lp51
F-9.5
aF8.0
aI1296
aI1605
aa(lp52
F-9.5
aF8.5
aI1287
aI1571
aa(lp53
F-9.5
aF9.0
aI1280
aI1536
aa(lp54
F-9.5
aF9.25
aI1278
aI1517
aa(lp55
F-9.5
aF9.5
aI1276
aI1498
aa(lp56
F-9.5
aF10.0
aI1273
aI1460
aa(lp57
F-9.5
aF10.25
aI1273
aI1439
aa(lp58
F-9.5
aF10.75
aI1273
aI1398
aa(lp59
F-9.5
aF11.25
aI1275
aI1355
aa(lp60
F-9.5
aF11.75
aI1280
aI1309
aa(lp61
F-9.5
aF12.25
aI1286
aI1262
aa(lp62
F-9.5
aF12.5
aI1290
aI1237
aa(lp63
F-9.5
aF12.75
aI1294
aI1212
aa(lp64
F-9.5
aF13.5
aI1311
aI1132
aa(lp65
F-9.5
aF13.75
aI1317
aI1105
aa(lp66
F-9.5
aF14.25
aI1332
aI1047
aa(lp67
F-9.5
aF14.5
aI1340
aI1017
aa(lp68
F-9.5
aF14.75
aI1349
aI985
aa(lp69
F-9.25
aF6.0
aI1333
aI1744
aa(lp70
F-9.25
aF6.5
aI1315
aI1717
aa(lp71
F-9.25
aF6.75
aI1307
aI1702
aa(lp72
F-9.25
aF7.5
aI1286
aI1657
aa(lp73
F-9.25
aF7.75
aI1280
aI1641
aa(lp74
F-9.25
aF8.0
aI1275
aI1624
aa(lp75
F-9.25
aF8.25
aI1270
aI1608
aa(lp76
F-9.25
aF9.25
aI1257
aI1536
aa(lp77
F-9.25
aF9.5
aI1255
aI1517
aa(lp78
F-9.25
aF9.75
aI1253
aI1498
aa(lp79
F-9.25
aF10.0
aI1252
aI1479
aa(lp80
F-9.25
aF10.25
aI1252
aI1458
aa(lp81
F-9.25
aF10.75
aI1252
aI1417
aa(lp82
F-9.25
aF11.0
aI1253
aI1395
aa(lp83
F-9.25
aF11.25
aI1255
aI1373
aa(lp84
F-9.25
aF11.75
aI1259
aI1328
aa(lp85
F-9.25
aF12.25
aI1266
aI1280
aa(lp86
F-9.25
aF12.75
aI1274
aI1231
aa(lp87
F-9.25
aF13.0
aI1279
aI1205
aa(lp88
F-9.25
aF13.75
aI1297
aI1124
aa(lp89
F-9.25
aF14.0
aI1304
aI1096
aa(lp90
F-9.25
aF14.25
aI1312
aI1066
aa(lp91
F-9.25
aF14.5
aI1320
aI1036
aa(lp92
F-9.25
aF14.75
aI1329
aI1005
aa(lp93
F-9.0
aF5.25
aI1345
aI1802
aa(lp94
F-9.0
aF5.75
aI1323
aI1777
aa(lp95
F-9.0
aF6.0
aI1313
aI1764
aa(lp96
F-9.0
aF6.5
aI1294
aI1737
aa(lp97
F-9.0
aF6.75
aI1286
aI1722
aa(lp98
F-9.0
aF7.0
aI1278
aI1707
aa(lp99
F-9.0
aF7.25
aI1271
aI1692
aa(lp100
F-9.0
aF7.5
aI1265
aI1676
aa(lp101
F-9.0
aF7.75
aI1259
aI1660
aa(lp102
F-9.0
aF8.0
aI1254
aI1643
aa(lp103
F-9.0
aF8.5
aI1245
aI1609
aa(lp104
F-9.0
aF9.5
aI1234
aI1536
aa(lp105
F-9.0
aF10.5
aI1231
aI1456
aa(lp106
F-9.0
aF10.75
aI1232
aI1434
aa(lp107
F-9.0
aF11.0
aI1233
aI1413
aa(lp108
F-9.0
aF11.25
aI1234
aI1391
aa(lp109
F-9.0
aF11.5
aI1236
aI1369
aa(lp110
F-9.0
aF11.75
aI1239
aI1346
aa(lp111
F-9.0
aF12.0
aI1242
aI1322
aa(lp112
F-9.0
aF12.25
aI1245
aI1299
aa(lp113
F-9.0
aF12.5
aI1249
aI1274
aa(lp114
F-9.0
aF12.75
aI1254
aI1249
aa(lp115
F-9.0
aF13.0
aI1259
aI1223
aa(lp116
F-9.0
aF13.25
aI1264
aI1197
aa(lp117
F-9.0
aF14.0
aI1284
aI1114
aa(lp118
F-9.0
aF14.25
aI1291
aI1086
aa(lp119
F-9.0
aF14.5
aI1300
aI1055
aa(lp120
F-9.0
aF14.75
aI1309
aI1024
aa(lp121
F-9.0
aF15.0
aI1318
aI993
aa(lp122
F-9.0
aF15.25
aI1328
aI960
aa(lp123
F-9.0
aF15.5
aI1339
aI926
aa(lp124
F-8.75
aF5.0
aI1337
aI1834
aa(lp125
F-8.75
aF5.5
aI1313
aI1810
aa(lp126
F-8.75
aF5.75
aI1302
aI1797
aa(lp127
F-8.75
aF6.0
aI1291
aI1784
aa(lp128
F-8.75
aF6.25
aI1282
aI1770
aa(lp129
F-8.75
aF6.5
aI1273
aI1756
aa(lp130
F-8.75
aF6.75
aI1265
aI1741
aa(lp131
F-8.75
aF7.0
aI1257
aI1726
aa(lp132
F-8.75
aF7.25
aI1250
aI1711
aa(lp133
F-8.75
aF7.5
aI1243
aI1695
aa(lp134
F-8.75
aF8.25
aI1228
aI1645
aa(lp135
F-8.75
aF8.5
aI1224
aI1627
aa(lp136
F-8.75
aF8.75
aI1220
aI1610
aa(lp137
F-8.75
aF10.0
aI1211
aI1514
aa(lp138
F-8.75
aF10.25
aI1210
aI1494
aa(lp139
F-8.75
aF10.5
aI1210
aI1474
aa(lp140
F-8.75
aF10.75
aI1211
aI1452
aa(lp141
F-8.75
aF11.0
aI1212
aI1431
aa(lp142
F-8.75
aF11.5
aI1216
aI1386
aa(lp143
F-8.75
aF12.25
aI1225
aI1316
aa(lp144
F-8.75
aF12.5
aI1229
aI1292
aa(lp145
F-8.75
aF12.75
aI1234
aI1266
aa(lp146
F-8.75
aF13.25
aI1244
aI1215
aa(lp147
F-8.75
aF13.5
aI1250
aI1188
aa(lp148
F-8.75
aF13.75
aI1257
aI1160
aa(lp149
F-8.75
aF14.0
aI1264
aI1132
aa(lp150
F-8.75
aF15.0
aI1298
aI1012
aa(lp151
F-8.75
aF15.25
aI1308
aI979
aa(lp152
F-8.75
aF16.0
aI1343
aI874
aa(lp153
F-8.5
aF4.5
aI1343
aI1877
aa(lp154
F-8.5
aF4.75
aI1329
aI1866
aa(lp155
F-8.5
aF5.0
aI1316
aI1854
aa(lp156
F-8.5
aF5.5
aI1291
aI1830
aa(lp157
F-8.5
aF5.75
aI1280
aI1817
aa(lp158
F-8.5
aF6.0
aI1270
aI1803
aa(lp159
F-8.5
aF6.75
aI1243
aI1760
aa(lp160
F-8.5
aF7.25
aI1228
aI1730
aa(lp161
F-8.5
aF7.75
aI1216
aI1697
aa(lp162
F-8.5
aF8.0
aI1211
aI1680
aa(lp163
F-8.5
aF8.25
aI1206
aI1663
aa(lp164
F-8.5
aF8.5
aI1202
aI1646
aa(lp165
F-8.5
aF8.75
aI1199
aI1627
aa(lp166
F-8.5
aF9.0
aI1196
aI1609
aa(lp167
F-8.5
aF9.5
aI1192
aI1571
aa(lp168
F-8.5
aF9.75
aI1190
aI1552
aa(lp169
F-8.5
aF10.0
aI1190
aI1531
aa(lp170
F-8.5
aF10.25
aI1189
aI1512
aa(lp171
F-8.5
aF10.5
aI1190
aI1490
aa(lp172
F-8.5
aF10.75
aI1190
aI1470
aa(lp173
F-8.5
aF11.25
aI1193
aI1426
aa(lp174
F-8.5
aF11.75
aI1198
aI1380
aa(lp175
F-8.5
aF12.0
aI1201
aI1357
aa(lp176
F-8.5
aF12.25
aI1205
aI1333
aa(lp177
F-8.5
aF12.75
aI1214
aI1283
aa(lp178
F-8.5
aF13.25
aI1224
aI1232
aa(lp179
F-8.5
aF13.5
aI1230
aI1206
aa(lp180
F-8.5
aF13.75
aI1237
aI1178
aa(lp181
F-8.5
aF14.0
aI1244
aI1150
aa(lp182
F-8.5
aF14.5
aI1260
aI1092
aa(lp183
F-8.5
aF14.75
aI1269
aI1061
aa(lp184
F-8.5
aF15.0
aI1278
aI1030
aa(lp185
F-8.5
aF15.25
aI1288
aI998
aa(lp186
F-8.5
aF15.5
aI1299
aI964
aa(lp187
F-8.25
aF4.25
aI1337
aI1908
aa(lp188
F-8.25
aF4.5
aI1322
aI1898
aa(lp189
F-8.25
aF4.75
aI1308
aI1886
aa(lp190
F-8.25
aF5.25
aI1282
aI1862
aa(lp191
F-8.25
aF5.5
aI1270
aI1849
aa(lp192
F-8.25
aF5.75
aI1259
aI1836
aa(lp193
F-8.25
aF6.0
aI1248
aI1823
aa(lp194
F-8.25
aF6.5
aI1229
aI1794
aa(lp195
F-8.25
aF6.75
aI1221
aI1779
aa(lp196
F-8.25
aF7.0
aI1213
aI1764
aa(lp197
F-8.25
aF7.25
aI1206
aI1748
aa(lp198
F-8.25
aF7.5
aI1200
aI1732
aa(lp199
F-8.25
aF7.75
aI1194
aI1715
aa(lp200
F-8.25
aF8.0
aI1189
aI1698
aa(lp201
F-8.25
aF8.5
aI1181
aI1663
aa(lp202
F-8.25
aF8.75
aI1177
aI1645
aa(lp203
F-8.25
aF9.25
aI1172
aI1608
aa(lp204
F-8.25
aF9.75
aI1169
aI1569
aa(lp205
F-8.25
aF10.5
aI1169
aI1507
aa(lp206
F-8.25
aF11.0
aI1171
aI1464
aa(lp207
F-8.25
aF11.25
aI1173
aI1442
aa(lp208
F-8.25
aF11.5
aI1175
aI1420
aa(lp209
F-8.25
aF12.0
aI1181
aI1373
aa(lp210
F-8.25
aF12.25
aI1185
aI1349
aa(lp211
F-8.25
aF12.5
aI1189
aI1325
aa(lp212
F-8.25
aF13.0
aI1199
aI1274
aa(lp213
F-8.25
aF13.25
aI1204
aI1249
aa(lp214
F-8.25
aF13.75
aI1217
aI1195
aa(lp215
F-8.25
aF14.0
aI1224
aI1167
aa(lp216
F-8.25
aF14.25
aI1232
aI1138
aa(lp217
F-8.25
aF14.5
aI1240
aI1109
aa(lp218
F-8.25
aF14.75
aI1249
aI1079
aa(lp219
F-8.25
aF15.0
aI1258
aI1048
aa(lp220
F-8.25
aF15.25
aI1268
aI1016
aa(lp221
F-8.25
aF15.5
aI1279
aI983
aa(lp222
F-8.25
aF15.75
aI1290
aI949
aa(lp223
F-8.25
aF16.0
aI1302
aI914
aa(lp224
F-8.25
aF16.5
aI1330
aI837
aa(lp225
F-8.0
aF3.75
aI1349
aI1949
aa(lp226
F-8.0
aF4.0
aI1332
aI1939
aa(lp227
F-8.0
aF4.25
aI1316
aI1929
aa(lp228
F-8.0
aF4.75
aI1287
aI1906
aa(lp229
F-8.0
aF5.0
aI1273
aI1894
aa(lp230
F-8.0
aF5.25
aI1260
aI1882
aa(lp231
F-8.0
aF5.5
aI1248
aI1869
aa(lp232
F-8.0
aF5.75
aI1237
aI1855
aa(lp233
F-8.0
aF6.0
aI1226
aI1842
aa(lp234
F-8.0
aF6.5
aI1207
aI1813
aa(lp235
F-8.0
aF6.75
aI1199
aI1797
aa(lp236
F-8.0
aF7.0
aI1191
aI1782
aa(lp237
F-8.0
aF7.25
aI1184
aI1766
aa(lp238
F-8.0
aF7.75
aI1172
aI1733
aa(lp239
F-8.0
aF8.0
aI1167
aI1716
aa(lp240
F-8.0
aF8.25
aI1163
aI1698
aa(lp241
F-8.0
aF8.5
aI1159
aI1680
aa(lp242
F-8.0
aF9.0
aI1153
aI1643
aa(lp243
F-8.0
aF9.25
aI1151
aI1624
aa(lp244
F-8.0
aF9.5
aI1149
aI1605
aa(lp245
F-8.0
aF9.75
aI1148
aI1585
aa(lp246
F-8.0
aF10.0
aI1147
aI1565
aa(lp247
F-8.0
aF10.25
aI1147
aI1545
aa(lp248
F-8.0
aF10.75
aI1149
aI1502
aa(lp249
F-8.0
aF11.0
aI1150
aI1481
aa(lp250
F-8.0
aF11.75
aI1157
aI1413
aa(lp251
F-8.0
aF12.0
aI1161
aI1389
aa(lp252
F-8.0
aF12.5
aI1169
aI1341
aa(lp253
F-8.0
aF13.5
aI1191
aI1238
aa(lp254
F-8.0
aF14.25
aI1212
aI1155
aa(lp255
F-8.0
aF14.75
aI1229
aI1096
aa(lp256
F-8.0
aF15.5
aI1259
aI1001
aa(lp257
F-8.0
aF15.75
aI1271
aI966
aa(lp258
F-8.0
aF16.0
aI1283
aI931
aa(lp259
F-8.0
aF16.5
aI1309
aI858
aa(lp260
F-8.0
aF16.75
aI1324
aI818
aa(lp261
F-8.0
aF17.0
aI1340
aI776
aa(lp262
F-7.75
aF3.5
aI1346
aI1979
aa(lp263
F-7.75
aF3.75
aI1328
aI1969
aa(lp264
F-7.75
aF4.0
aI1311
aI1959
aa(lp265
F-7.75
aF4.5
aI1279
aI1938
aa(lp266
F-7.75
aF4.75
aI1264
aI1926
aa(lp267
F-7.75
aF5.25
aI1238
aI1901
aa(lp268
F-7.75
aF5.75
aI1214
aI1874
aa(lp269
F-7.75
aF6.0
aI1204
aI1860
aa(lp270
F-7.75
aF6.25
aI1194
aI1846
aa(lp271
F-7.75
aF6.5
aI1185
aI1831
aa(lp272
F-7.75
aF7.5
aI1156
aI1767
aa(lp273
F-7.75
aF7.75
aI1150
aI1750
aa(lp274
F-7.75
aF8.0
aI1145
aI1733
aa(lp275
F-7.75
aF8.25
aI1141
aI1715
aa(lp276
F-7.75
aF8.5
aI1137
aI1697
aa(lp277
F-7.75
aF9.0
aI1131
aI1660
aa(lp278
F-7.75
aF9.25
aI1129
aI1641
aa(lp279
F-7.75
aF10.0
aI1126
aI1581
aa(lp280
F-7.75
aF10.25
aI1126
aI1561
aa(lp281
F-7.75
aF10.5
aI1127
aI1539
aa(lp282
F-7.75
aF10.75
aI1128
aI1518
aa(lp283
F-7.75
aF11.5
aI1134
aI1451
aa(lp284
F-7.75
aF11.75
aI1137
aI1428
aa(lp285
F-7.75
aF12.0
aI1140
aI1405
aa(lp286
F-7.75
aF12.25
aI1144
aI1381
aa(lp287
F-7.75
aF12.5
aI1149
aI1356
aa(lp288
F-7.75
aF12.75
aI1154
aI1331
aa(lp289
F-7.75
aF13.0
aI1159
aI1306
aa(lp290
F-7.75
aF13.25
aI1165
aI1280
aa(lp291
F-7.75
aF13.5
aI1171
aI1254
aa(lp292
F-7.75
aF14.0
aI1185
aI1199
aa(lp293
F-7.75
aF14.5
aI1201
aI1142
aa(lp294
F-7.75
aF14.75
aI1210
aI1112
aa(lp295
F-7.75
aF15.25
aI1229
aI1050
aa(lp296
F-7.75
aF15.5
aI1240
aI1017
aa(lp297
F-7.75
aF15.75
aI1251
aI984
aa(lp298
F-7.75
aF16.0
aI1263
aI949
aa(lp299
F-7.75
aF16.25
aI1276
aI913
aa(lp300
F-7.75
aF16.5
aI1290
aI875
aa(lp301
F-7.75
aF16.75
aI1304
aI837
aa(lp302
F-7.75
aF17.0
aI1320
aI795
aa(lp303
F-7.75
aF17.25
aI1337
aI752
aa(lp304
F-7.5
aF3.25
aI1344
aI2009
aa(lp305
F-7.5
aF3.5
aI1325
aI1999
aa(lp306
F-7.5
aF4.25
aI1273
aI1968
aa(lp307
F-7.5
aF4.5
aI1257
aI1957
aa(lp308
F-7.5
aF4.75
aI1242
aI1945
aa(lp309
F-7.5
aF5.0
aI1228
aI1933
aa(lp310
F-7.5
aF5.25
aI1215
aI1920
aa(lp311
F-7.5
aF5.5
aI1203
aI1906
aa(lp312
F-7.5
aF6.0
aI1181
aI1878
aa(lp313
F-7.5
aF6.25
aI1171
aI1864
aa(lp314
F-7.5
aF6.5
aI1162
aI1849
aa(lp315
F-7.5
aF6.75
aI1154
aI1833
aa(lp316
F-7.5
aF7.0
aI1146
aI1817
aa(lp317
F-7.5
aF7.25
aI1139
aI1801
aa(lp318
F-7.5
aF7.5
aI1133
aI1784
aa(lp319
F-7.5
aF7.75
aI1127
aI1767
aa(lp320
F-7.5
aF8.25
aI1118
aI1732
aa(lp321
F-7.5
aF8.75
aI1112
aI1695
aa(lp322
F-7.5
aF9.0
aI1109
aI1676
aa(lp323
F-7.5
aF9.25
aI1107
aI1657
aa(lp324
F-7.5
aF9.5
aI1106
aI1637
aa(lp325
F-7.5
aF9.75
aI1105
aI1617
aa(lp326
F-7.5
aF10.25
aI1105
aI1576
aa(lp327
F-7.5
aF10.5
aI1106
aI1555
aa(lp328
F-7.5
aF10.75
aI1107
aI1533
aa(lp329
F-7.5
aF11.25
aI1111
aI1489
aa(lp330
F-7.5
aF11.5
aI1113
aI1467
aa(lp331
F-7.5
aF12.0
aI1120
aI1420
aa(lp332
F-7.5
aF12.25
aI1124
aI1396
aa(lp333
F-7.5
aF12.5
aI1129
aI1371
aa(lp334
F-7.5
aF13.0
aI1139
aI1321
aa(lp335
F-7.5
aF13.25
aI1145
aI1295
aa(lp336
F-7.5
aF13.5
aI1151
aI1269
aa(lp337
F-7.5
aF13.75
aI1158
aI1242
aa(lp338
F-7.5
aF14.5
aI1182
aI1157
aa(lp339
F-7.5
aF15.0
aI1200
aI1097
aa(lp340
F-7.5
aF15.25
aI1210
aI1066
aa(lp341
F-7.5
aF15.5
aI1221
aI1033
aa(lp342
F-7.5
aF15.75
aI1232
aI1000
aa(lp343
F-7.5
aF16.0
aI1244
aI966
aa(lp344
F-7.5
aF16.25
aI1256
aI931
aa(lp345
F-7.5
aF16.5
aI1270
aI893
aa(lp346
F-7.5
aF16.75
aI1285
aI854
aa(lp347
F-7.5
aF17.0
aI1300
aI814
aa(lp348
F-7.5
aF17.25
aI1317
aI771
aa(lp349
F-7.5
aF17.5
aI1334
aI728
aa(lp350
F-7.25
aF3.0
aI1344
aI2038
aa(lp351
F-7.25
aF3.25
aI1323
aI2029
aa(lp352
F-7.25
aF3.75
aI1285
aI2010
aa(lp353
F-7.25
aF4.0
aI1267
aI1999
aa(lp354
F-7.25
aF4.25
aI1250
aI1988
aa(lp355
F-7.25
aF4.75
aI1220
aI1964
aa(lp356
F-7.25
aF5.0
aI1205
aI1952
aa(lp357
F-7.25
aF5.25
aI1192
aI1939
aa(lp358
F-7.25
aF5.5
aI1180
aI1925
aa(lp359
F-7.25
aF5.75
aI1168
aI1911
aa(lp360
F-7.25
aF6.0
aI1158
aI1896
aa(lp361
F-7.25
aF6.25
aI1148
aI1881
aa(lp362
F-7.25
aF6.5
aI1139
aI1866
aa(lp363
F-7.25
aF7.0
aI1123
aI1834
aa(lp364
F-7.25
aF7.25
aI1116
aI1818
aa(lp365
F-7.25
aF7.5
aI1110
aI1801
aa(lp366
F-7.25
aF8.0
aI1100
aI1766
aa(lp367
F-7.25
aF8.25
aI1096
aI1748
aa(lp368
F-7.25
aF8.5
aI1092
aI1730
aa(lp369
F-7.25
aF8.75
aI1089
aI1711
aa(lp370
F-7.25
aF9.0
aI1087
aI1692
aa(lp371
F-7.25
aF9.75
aI1083
aI1633
aa(lp372
F-7.25
aF10.0
aI1083
aI1612
aa(lp373
F-7.25
aF10.5
aI1084
aI1570
aa(lp374
F-7.25
aF10.75
aI1086
aI1548
aa(lp375
F-7.25
aF11.0
aI1088
aI1526
aa(lp376
F-7.25
aF11.25
aI1090
aI1504
aa(lp377
F-7.25
aF11.5
aI1093
aI1481
aa(lp378
F-7.25
aF11.75
aI1096
aI1458
aa(lp379
F-7.25
aF12.25
aI1104
aI1411
aa(lp380
F-7.25
aF12.75
aI1114
aI1361
aa(lp381
F-7.25
aF13.0
aI1119
aI1336
aa(lp382
F-7.25
aF13.25
aI1125
aI1310
aa(lp383
F-7.25
aF13.5
aI1132
aI1283
aa(lp384
F-7.25
aF13.75
aI1139
aI1256
aa(lp385
F-7.25
aF14.0
aI1146
aI1229
aa(lp386
F-7.25
aF14.25
aI1154
aI1201
aa(lp387
F-7.25
aF14.75
aI1171
aI1143
aa(lp388
F-7.25
aF15.0
aI1181
aI1112
aa(lp389
F-7.25
aF15.25
aI1191
aI1081
aa(lp390
F-7.25
aF15.75
aI1213
aI1016
aa(lp391
F-7.25
aF16.25
aI1237
aI947
aa(lp392
F-7.25
aF16.5
aI1251
aI910
aa(lp393
F-7.25
aF16.75
aI1265
aI872
aa(lp394
F-7.25
aF17.0
aI1281
aI831
aa(lp395
F-7.25
aF17.25
aI1297
aI790
aa(lp396
F-7.25
aF17.5
aI1314
aI747
aa(lp397
F-7.0
aF2.75
aI1345
aI2067
aa(lp398
F-7.0
aF3.0
aI1323
aI2058
aa(lp399
F-7.0
aF3.25
aI1302
aI2049
aa(lp400
F-7.0
aF3.75
aI1263
aI2029
aa(lp401
F-7.0
aF4.25
aI1228
aI2007
aa(lp402
F-7.0
aF4.75
aI1196
aI1983
aa(lp403
F-7.0
aF5.0
aI1182
aI1970
aa(lp404
F-7.0
aF5.5
aI1156
aI1943
aa(lp405
F-7.0
aF6.0
aI1134
aI1914
aa(lp406
F-7.0
aF6.25
aI1124
aI1899
aa(lp407
F-7.0
aF6.5
aI1115
aI1883
aa(lp408
F-7.0
aF6.75
aI1107
aI1867
aa(lp409
F-7.0
aF7.0
aI1099
aI1851
aa(lp410
F-7.0
aF7.25
aI1093
aI1834
aa(lp411
F-7.0
aF7.5
aI1087
aI1817
aa(lp412
F-7.0
aF8.0
aI1077
aI1782
aa(lp413
F-7.0
aF8.25
aI1073
aI1764
aa(lp414
F-7.0
aF8.75
aI1067
aI1726
aa(lp415
F-7.0
aF9.0
aI1065
aI1707
aa(lp416
F-7.0
aF10.25
aI1062
aI1606
aa(lp417
F-7.0
aF11.5
aI1072
aI1496
aa(lp418
F-7.0
aF11.75
aI1076
aI1472
aa(lp419
F-7.0
aF12.25
aI1084
aI1425
aa(lp420
F-7.0
aF12.5
aI1089
aI1400
aa(lp421
F-7.0
aF12.75
aI1094
aI1375
aa(lp422
F-7.0
aF13.25
aI1106
aI1324
aa(lp423
F-7.0
aF13.5
aI1112
aI1298
aa(lp424
F-7.0
aF13.75
aI1119
aI1271
aa(lp425
F-7.0
aF14.0
aI1127
aI1243
aa(lp426
F-7.0
aF14.25
aI1135
aI1215
aa(lp427
F-7.0
aF14.5
aI1143
aI1187
aa(lp428
F-7.0
aF15.0
aI1162
aI1127
aa(lp429
F-7.0
aF15.25
aI1172
aI1096
aa(lp430
F-7.0
aF15.75
aI1194
aI1031
aa(lp431
F-7.0
aF16.0
aI1206
aI997
aa(lp432
F-7.0
aF16.25
aI1218
aI963
aa(lp433
F-7.0
aF16.5
aI1232
aI926
aa(lp434
F-7.0
aF16.75
aI1246
aI888
aa(lp435
F-7.0
aF17.0
aI1261
aI849
aa(lp436
F-7.0
aF17.5
aI1295
aI764
aa(lp437
F-7.0
aF17.75
aI1314
aI718
aa(lp438
F-6.75
aF2.5
aI1348
aI2095
aa(lp439
F-6.75
aF2.75
aI1324
aI2087
aa(lp440
F-6.75
aF3.25
aI1280
aI2069
aa(lp441
F-6.75
aF3.5
aI1259
aI2059
aa(lp442
F-6.75
aF3.75
aI1239
aI2049
aa(lp443
F-6.75
aF4.0
aI1221
aI2038
aa(lp444
F-6.75
aF4.25
aI1204
aI2026
aa(lp445
F-6.75
aF4.5
aI1188
aI2014
aa(lp446
F-6.75
aF4.75
aI1172
aI2002
aa(lp447
F-6.75
aF5.0
aI1158
aI1988
aa(lp448
F-6.75
aF5.25
aI1144
aI1975
aa(lp449
F-6.75
aF5.5
aI1132
aI1961
aa(lp450
F-6.75
aF5.75
aI1121
aI1946
aa(lp451
F-6.75
aF6.0
aI1110
aI1931
aa(lp452
F-6.75
aF6.25
aI1100
aI1916
aa(lp453
F-6.75
aF6.5
aI1091
aI1900
aa(lp454
F-6.75
aF6.75
aI1083
aI1884
aa(lp455
F-6.75
aF7.0
aI1076
aI1867
aa(lp456
F-6.75
aF7.5
aI1063
aI1833
aa(lp457
F-6.75
aF8.0
aI1054
aI1797
aa(lp458
F-6.75
aF8.25
aI1050
aI1779
aa(lp459
F-6.75
aF8.5
aI1047
aI1760
aa(lp460
F-6.75
aF8.75
aI1044
aI1741
aa(lp461
F-6.75
aF9.0
aI1042
aI1722
aa(lp462
F-6.75
aF9.25
aI1041
aI1702
aa(lp463
F-6.75
aF9.5
aI1040
aI1682
aa(lp464
F-6.75
aF10.0
aI1040
aI1641
aa(lp465
F-6.75
aF10.5
aI1042
aI1598
aa(lp466
F-6.75
aF11.75
aI1055
aI1486
aa(lp467
F-6.75
aF12.25
aI1064
aI1438
aa(lp468
F-6.75
aF12.75
aI1074
aI1389
aa(lp469
F-6.75
aF13.0
aI1080
aI1363
aa(lp470
F-6.75
aF13.25
aI1086
aI1338
aa(lp471
F-6.75
aF13.5
aI1093
aI1311
aa(lp472
F-6.75
aF13.75
aI1100
aI1284
aa(lp473
F-6.75
aF14.25
aI1116
aI1229
aa(lp474
F-6.75
aF14.75
aI1134
aI1170
aa(lp475
F-6.75
aF15.0
aI1143
aI1141
aa(lp476
F-6.75
aF15.25
aI1153
aI1110
aa(lp477
F-6.75
aF15.5
aI1164
aI1078
aa(lp478
F-6.75
aF15.75
aI1175
aI1046
aa(lp479
F-6.75
aF16.0
aI1187
aI1012
aa(lp480
F-6.75
aF16.25
aI1200
aI977
aa(lp481
F-6.75
aF16.5
aI1213
aI941
aa(lp482
F-6.75
aF16.75
aI1227
aI904
aa(lp483
F-6.75
aF17.25
aI1258
aI825
aa(lp484
F-6.75
aF17.5
aI1276
aI781
aa(lp485
F-6.75
aF17.75
aI1294
aI737
aa(lp486
F-6.75
aF18.0
aI1314
aI689
aa(lp487
F-6.75
aF18.25
aI1335
aI639
aa(lp488
F-6.5
aF2.75
aI1303
aI2107
aa(lp489
F-6.5
aF3.25
aI1257
aI2089
aa(lp490
F-6.5
aF3.5
aI1236
aI2079
aa(lp491
F-6.5
aF3.75
aI1216
aI2068
aa(lp492
F-6.5
aF4.0
aI1197
aI2057
aa(lp493
F-6.5
aF4.25
aI1180
aI2045
aa(lp494
F-6.5
aF4.5
aI1163
aI2033
aa(lp495
F-6.5
aF5.25
aI1120
aI1992
aa(lp496
F-6.5
aF5.5
aI1107
aI1978
aa(lp497
F-6.5
aF5.75
aI1096
aI1963
aa(lp498
F-6.5
aF6.0
aI1085
aI1948
aa(lp499
F-6.5
aF6.25
aI1076
aI1932
aa(lp500
F-6.5
aF6.5
aI1067
aI1916
aa(lp501
F-6.5
aF6.75
aI1059
aI1900
aa(lp502
F-6.5
aF7.0
aI1052
aI1883
aa(lp503
F-6.5
aF7.25
aI1045
aI1866
aa(lp504
F-6.5
aF7.5
aI1039
aI1849
aa(lp505
F-6.5
aF7.75
aI1034
aI1831
aa(lp506
F-6.5
aF8.0
aI1030
aI1813
aa(lp507
F-6.5
aF8.25
aI1026
aI1794
aa(lp508
F-6.5
aF8.75
aI1021
aI1756
aa(lp509
F-6.5
aF9.0
aI1019
aI1737
aa(lp510
F-6.5
aF9.25
aI1018
aI1717
aa(lp511
F-6.5
aF10.0
aI1018
aI1655
aa(lp512
F-6.5
aF10.25
aI1019
aI1634
aa(lp513
F-6.5
aF10.5
aI1020
aI1612
aa(lp514
F-6.5
aF11.0
aI1025
aI1568
aa(lp515
F-6.5
aF11.75
aI1035
aI1499
aa(lp516
F-6.5
aF12.75
aI1054
aI1402
aa(lp517
F-6.5
aF13.0
aI1060
aI1377
aa(lp518
F-6.5
aF13.5
aI1073
aI1325
aa(lp519
F-6.5
aF13.75
aI1081
aI1297
aa(lp520
F-6.5
aF14.25
aI1097
aI1242
aa(lp521
F-6.5
aF14.75
aI1115
aI1184
aa(lp522
F-6.5
aF15.25
aI1135
aI1123
aa(lp523
F-6.5
aF15.75
aI1157
aI1059
aa(lp524
F-6.5
aF16.25
aI1181
aI992
aa(lp525
F-6.5
aF17.0
aI1224
aI880
aa(lp526
F-6.5
aF17.5
aI1256
aI799
aa(lp527
F-6.5
aF18.25
aI1315
aI658
aa(lp528
F-6.5
aF18.5
aI1339
aI603
aa(lp529
F-6.25
aF2.5
aI1305
aI2136
aa(lp530
F-6.25
aF2.75
aI1280
aI2127
aa(lp531
F-6.25
aF3.0
aI1256
aI2118
aa(lp532
F-6.25
aF3.5
aI1212
aI2098
aa(lp533
F-6.25
aF3.75
aI1192
aI2087
aa(lp534
F-6.25
aF4.0
aI1173
aI2075
aa(lp535
F-6.25
aF4.25
aI1155
aI2063
aa(lp536
F-6.25
aF4.5
aI1138
aI2051
aa(lp537
F-6.25
aF4.75
aI1123
aI2037
aa(lp538
F-6.25
aF5.0
aI1108
aI2024
aa(lp539
F-6.25
aF5.5
aI1082
aI1995
aa(lp540
F-6.25
aF5.75
aI1071
aI1980
aa(lp541
F-6.25
aF6.0
aI1060
aI1965
aa(lp542
F-6.25
aF6.5
aI1042
aI1932
aa(lp543
F-6.25
aF6.75
aI1034
aI1916
aa(lp544
F-6.25
aF7.0
aI1027
aI1899
aa(lp545
F-6.25
aF7.25
aI1021
aI1881
aa(lp546
F-6.25
aF7.5
aI1015
aI1864
aa(lp547
F-6.25
aF7.75
aI1010
aI1846
aa(lp548
F-6.25
aF8.75
aI998
aI1770
aa(lp549
F-6.25
aF9.5
aI995
aI1710
aa(lp550
F-6.25
aF10.0
aI996
aI1668
aa(lp551
F-6.25
aF10.25
aI997
aI1647
aa(lp552
F-6.25
aF10.5
aI999
aI1625
aa(lp553
F-6.25
aF10.75
aI1001
aI1603
aa(lp554
F-6.25
aF11.25
aI1007
aI1558
aa(lp555
F-6.25
aF11.75
aI1014
aI1512
aa(lp556
F-6.25
aF12.5
aI1029
aI1439
aa(lp557
F-6.25
aF12.75
aI1034
aI1415
aa(lp558
F-6.25
aF13.25
aI1047
aI1363
aa(lp559
F-6.25
aF13.5
aI1054
aI1337
aa(lp560
F-6.25
aF14.0
aI1070
aI1282
aa(lp561
F-6.25
aF14.25
aI1078
aI1255
aa(lp562
F-6.25
aF14.5
aI1087
aI1226
aa(lp563
F-6.25
aF14.75
aI1096
aI1197
aa(lp564
F-6.25
aF15.0
aI1106
aI1167
aa(lp565
F-6.25
aF15.25
aI1116
aI1136
aa(lp566
F-6.25
aF15.5
aI1127
aI1105
aa(lp567
F-6.25
aF15.75
aI1138
aI1073
aa(lp568
F-6.25
aF16.0
aI1150
aI1040
aa(lp569
F-6.25
aF16.25
aI1163
aI1005
aa(lp570
F-6.25
aF16.5
aI1176
aI970
aa(lp571
F-6.25
aF17.25
aI1221
aI855
aa(lp572
F-6.25
aF17.5
aI1238
aI814
aa(lp573
F-6.25
aF17.75
aI1256
aI770
aa(lp574
F-6.25
aF18.0
aI1275
aI724
aa(lp575
F-6.25
aF18.25
aI1296
aI675
aa(lp576
F-6.25
aF18.5
aI1319
aI622
aa(lp577
F-6.25
aF18.75
aI1344
aI565
aa(lp578
F-6.0
aF2.0
aI1338
aI2171
aa(lp579
F-6.0
aF2.25
aI1309
aI2164
aa(lp580
F-6.0
aF2.5
aI1282
aI2156
aa(lp581
F-6.0
aF2.75
aI1257
aI2147
aa(lp582
F-6.0
aF3.0
aI1232
aI2138
aa(lp583
F-6.0
aF3.25
aI1209
aI2128
aa(lp584
F-6.0
aF3.5
aI1187
aI2117
aa(lp585
F-6.0
aF3.75
aI1167
aI2106
aa(lp586
F-6.0
aF4.0
aI1147
aI2094
aa(lp587
F-6.0
aF4.25
aI1130
aI2081
aa(lp588
F-6.0
aF4.5
aI1113
aI2068
aa(lp589
F-6.0
aF4.75
aI1097
aI2055
aa(lp590
F-6.0
aF5.0
aI1082
aI2041
aa(lp591
F-6.0
aF5.5
aI1056
aI2012
aa(lp592
F-6.0
aF5.75
aI1045
aI1996
aa(lp593
F-6.0
aF6.25
aI1025
aI1965
aa(lp594
F-6.0
aF6.5
aI1016
aI1948
aa(lp595
F-6.0
aF6.75
aI1009
aI1931
aa(lp596
F-6.0
aF7.0
aI1002
aI1914
aa(lp597
F-6.0
aF7.25
aI996
aI1896
aa(lp598
F-6.0
aF7.5
aI991
aI1878
aa(lp599
F-6.0
aF7.75
aI986
aI1860
aa(lp600
F-6.0
aF8.0
aI982
aI1842
aa(lp601
F-6.0
aF8.25
aI979
aI1823
aa(lp602
F-6.0
aF8.5
aI977
aI1803
aa(lp603
F-6.0
aF8.75
aI975
aI1784
aa(lp604
F-6.0
aF9.0
aI973
aI1764
aa(lp605
F-6.0
aF9.25
aI973
aI1744
aa(lp606
F-6.0
aF10.0
aI974
aI1681
aa(lp607
F-6.0
aF10.25
aI975
aI1660
aa(lp608
F-6.0
aF10.5
aI977
aI1638
aa(lp609
F-6.0
aF11.0
aI982
aI1594
aa(lp610
F-6.0
aF11.5
aI989
aI1548
aa(lp611
F-6.0
aF11.75
aI994
aI1524
aa(lp612
F-6.0
aF12.0
aI998
aI1501
aa(lp613
F-6.0
aF13.0
aI1021
aI1401
aa(lp614
F-6.0
aF13.25
aI1028
aI1375
aa(lp615
F-6.0
aF13.5
aI1035
aI1349
aa(lp616
F-6.0
aF14.25
aI1059
aI1267
aa(lp617
F-6.0
aF14.5
aI1068
aI1238
aa(lp618
F-6.0
aF15.0
aI1087
aI1180
aa(lp619
F-6.0
aF15.5
aI1109
aI1117
aa(lp620
F-6.0
aF15.75
aI1120
aI1085
aa(lp621
F-6.0
aF16.25
aI1145
aI1018
aa(lp622
F-6.0
aF16.5
aI1158
aI983
aa(lp623
F-6.0
aF16.75
aI1172
aI947
aa(lp624
F-6.0
aF17.0
aI1187
aI909
aa(lp625
F-6.0
aF17.5
aI1220
aI828
aa(lp626
F-6.0
aF17.75
aI1237
aI786
aa(lp627
F-6.0
aF18.0
aI1256
aI741
aa(lp628
F-6.0
aF18.25
aI1277
aI692
aa(lp629
F-6.0
aF18.5
aI1299
aI641
aa(lp630
F-6.0
aF18.75
aI1324
aI584
aa(lp631
F-5.75
aF1.75
aI1347
aI2198
aa(lp632
F-5.75
aF2.25
aI1287
aI2184
aa(lp633
F-5.75
aF2.5
aI1259
aI2176
aa(lp634
F-5.75
aF2.75
aI1233
aI2167
aa(lp635
F-5.75
aF3.0
aI1208
aI2157
aa(lp636
F-5.75
aF3.25
aI1184
aI2147
aa(lp637
F-5.75
aF3.5
aI1162
aI2136
aa(lp638
F-5.75
aF3.75
aI1141
aI2124
aa(lp639
F-5.75
aF4.0
aI1121
aI2112
aa(lp640
F-5.75
aF4.25
aI1103
aI2099
aa(lp641
F-5.75
aF4.5
aI1086
aI2086
aa(lp642
F-5.75
aF4.75
aI1071
aI2072
aa(lp643
F-5.75
aF5.0
aI1056
aI2058
aa(lp644
F-5.75
aF5.25
aI1042
aI2043
aa(lp645
F-5.75
aF5.5
aI1030
aI2028
aa(lp646
F-5.75
aF5.75
aI1019
aI2012
aa(lp647
F-5.75
aF6.0
aI1009
aI1996
aa(lp648
F-5.75
aF6.25
aI999
aI1980
aa(lp649
F-5.75
aF6.5
aI991
aI1963
aa(lp650
F-5.75
aF6.75
aI983
aI1946
aa(lp651
F-5.75
aF7.25
aI971
aI1911
aa(lp652
F-5.75
aF7.75
aI962
aI1874
aa(lp653
F-5.75
aF8.0
aI958
aI1855
aa(lp654
F-5.75
aF8.25
aI955
aI1836
aa(lp655
F-5.75
aF8.5
aI953
aI1817
aa(lp656
F-5.75
aF8.75
aI951
aI1797
aa(lp657
F-5.75
aF9.0
aI950
aI1777
aa(lp658
F-5.75
aF9.5
aI950
aI1736
aa(lp659
F-5.75
aF9.75
aI950
aI1715
aa(lp660
F-5.75
aF10.5
aI955
aI1651
aa(lp661
F-5.75
aF10.75
aI958
aI1628
aa(lp662
F-5.75
aF11.0
aI961
aI1606
aa(lp663
F-5.75
aF11.75
aI973
aI1536
aa(lp664
F-5.75
aF12.0
aI978
aI1512
aa(lp665
F-5.75
aF12.25
aI983
aI1488
aa(lp666
F-5.75
aF12.5
aI989
aI1463
aa(lp667
F-5.75
aF12.75
aI995
aI1438
aa(lp668
F-5.75
aF13.5
aI1016
aI1360
aa(lp669
F-5.75
aF13.75
aI1024
aI1333
aa(lp670
F-5.75
aF14.0
aI1032
aI1306
aa(lp671
F-5.75
aF14.25
aI1040
aI1279
aa(lp672
F-5.75
aF14.75
aI1059
aI1221
aa(lp673
F-5.75
aF15.0
aI1069
aI1191
aa(lp674
F-5.75
aF15.25
aI1080
aI1160
aa(lp675
F-5.75
aF15.5
aI1091
aI1129
aa(lp676
F-5.75
aF15.75
aI1102
aI1098
aa(lp677
F-5.75
aF16.0
aI1114
aI1065
aa(lp678
F-5.75
aF16.25
aI1127
aI1031
aa(lp679
F-5.75
aF16.5
aI1140
aI996
aa(lp680
F-5.75
aF16.75
aI1154
aI960
aa(lp681
F-5.75
aF17.25
aI1185
aI883
aa(lp682
F-5.75
aF17.5
aI1202
aI842
aa(lp683
F-5.75
aF17.75
aI1219
aI800
aa(lp684
F-5.75
aF18.0
aI1238
aI755
aa(lp685
F-5.75
aF18.5
aI1280
aI658
aa(lp686
F-5.75
aF19.0
aI1331
aI543
aa(lp687
F-5.5
aF1.75
aI1326
aI2219
aa(lp688
F-5.5
aF2.0
aI1294
aI2212
aa(lp689
F-5.5
aF2.25
aI1264
aI2204
aa(lp690
F-5.5
aF2.75
aI1208
aI2186
aa(lp691
F-5.5
aF3.0
aI1183
aI2176
aa(lp692
F-5.5
aF3.5
aI1136
aI2154
aa(lp693
F-5.5
aF3.75
aI1115
aI2142
aa(lp694
F-5.5
aF4.0
aI1095
aI2130
aa(lp695
F-5.5
aF4.25
aI1076
aI2117
aa(lp696
F-5.5
aF4.5
aI1059
aI2103
aa(lp697
F-5.5
aF4.75
aI1043
aI2089
aa(lp698
F-5.5
aF5.0
aI1029
aI2074
aa(lp699
F-5.5
aF5.5
aI1003
aI2044
aa(lp700
F-5.5
aF5.75
aI992
aI2028
aa(lp701
F-5.5
aF6.0
aI982
aI2012
aa(lp702
F-5.5
aF6.25
aI972
aI1995
aa(lp703
F-5.5
aF6.5
aI964
aI1978
aa(lp704
F-5.5
aF6.75
aI957
aI1961
aa(lp705
F-5.5
aF7.0
aI951
aI1943
aa(lp706
F-5.5
aF7.25
aI945
aI1925
aa(lp707
F-5.5
aF7.5
aI941
aI1906
aa(lp708
F-5.5
aF8.0
aI933
aI1869
aa(lp709
F-5.5
aF8.25
aI931
aI1849
aa(lp710
F-5.5
aF8.5
aI929
aI1830
aa(lp711
F-5.5
aF8.75
aI927
aI1810
aa(lp712
F-5.5
aF9.5
aI927
aI1748
aa(lp713
F-5.5
aF9.75
aI928
aI1727
aa(lp714
F-5.5
aF10.0
aI929
aI1706
aa(lp715
F-5.5
aF10.25
aI931
aI1684
aa(lp716
F-5.5
aF11.0
aI940
aI1617
aa(lp717
F-5.5
aF11.25
aI944
aI1594
aa(lp718
F-5.5
aF11.5
aI948
aI1571
aa(lp719
F-5.5
aF12.0
aI958
aI1523
aa(lp720
F-5.5
aF12.25
aI963
aI1499
aa(lp721
F-5.5
aF12.75
aI975
aI1450
aa(lp722
F-5.5
aF13.0
aI982
aI1424
aa(lp723
F-5.5
aF13.25
aI989
aI1398
aa(lp724
F-5.5
aF14.0
aI1013
aI1317
aa(lp725
F-5.5
aF14.25
aI1022
aI1289
aa(lp726
F-5.5
aF14.5
aI1031
aI1261
aa(lp727
F-5.5
aF14.75
aI1041
aI1232
aa(lp728
F-5.5
aF15.0
aI1051
aI1202
aa(lp729
F-5.5
aF15.75
aI1084
aI1109
aa(lp730
F-5.5
aF16.0
aI1096
aI1077
aa(lp731
F-5.5
aF16.25
aI1109
aI1043
aa(lp732
F-5.5
aF17.0
aI1152
aI934
aa(lp733
F-5.5
aF17.25
aI1167
aI896
aa(lp734
F-5.5
aF18.0
aI1220
aI770
aa(lp735
F-5.5
aF18.25
aI1240
aI723
aa(lp736
F-5.5
aF18.5
aI1262
aI673
aa(lp737
F-5.5
aF19.0
aI1312
aI560
aa(lp738
F-5.5
aF19.25
aI1342
aI494
aa(lp739
F-5.25
aF1.5
aI1338
aI2245
aa(lp740
F-5.25
aF1.75
aI1304
aI2239
aa(lp741
F-5.25
aF2.0
aI1271
aI2232
aa(lp742
F-5.25
aF2.25
aI1240
aI2224
aa(lp743
F-5.25
aF2.5
aI1210
aI2215
aa(lp744
F-5.25
aF2.75
aI1183
aI2205
aa(lp745
F-5.25
aF3.0
aI1156
aI2195
aa(lp746
F-5.25
aF3.25
aI1131
aI2184
aa(lp747
F-5.25
aF3.5
aI1109
aI2172
aa(lp748
F-5.25
aF3.75
aI1087
aI2160
aa(lp749
F-5.25
aF4.0
aI1067
aI2147
aa(lp750
F-5.25
aF4.25
aI1048
aI2134
aa(lp751
F-5.25
aF4.5
aI1031
aI2120
aa(lp752
F-5.25
aF5.0
aI1001
aI2090
aa(lp753
F-5.25
aF5.25
aI987
aI2075
aa(lp754
F-5.25
aF5.75
aI964
aI2043
aa(lp755
F-5.25
aF6.5
aI938
aI1992
aa(lp756
F-5.25
aF6.75
aI931
aI1975
aa(lp757
F-5.25
aF7.25
aI919
aI1939
aa(lp758
F-5.25
aF7.5
aI915
aI1920
aa(lp759
F-5.25
aF7.75
aI911
aI1901
aa(lp760
F-5.25
aF8.0
aI908
aI1882
aa(lp761
F-5.25
aF8.25
aI906
aI1862
aa(lp762
F-5.25
aF9.0
aI903
aI1802
aa(lp763
F-5.25
aF9.25
aI903
aI1781
aa(lp764
F-5.25
aF9.5
aI904
aI1760
aa(lp765
F-5.25
aF9.75
aI905
aI1739
aa(lp766
F-5.25
aF10.25
aI909
aI1696
aa(lp767
F-5.25
aF10.75
aI915
aI1651
aa(lp768
F-5.25
aF11.0
aI918
aI1629
aa(lp769
F-5.25
aF11.5
aI927
aI1582
aa(lp770
F-5.25
aF12.25
aI943
aI1510
aa(lp771
F-5.25
aF12.5
aI949
aI1485
aa(lp772
F-5.25
aF12.75
aI956
aI1460
aa(lp773
F-5.25
aF13.0
aI963
aI1434
aa(lp774
F-5.25
aF13.25
aI970
aI1409
aa(lp775
F-5.25
aF13.5
aI978
aI1382
aa(lp776
F-5.25
aF13.75
aI986
aI1355
aa(lp777
F-5.25
aF14.75
aI1023
aI1242
aa(lp778
F-5.25
aF15.0
aI1033
aI1213
aa(lp779
F-5.25
aF16.0
aI1079
aI1087
aa(lp780
F-5.25
aF16.5
aI1105
aI1019
aa(lp781
F-5.25
aF16.75
aI1119
aI984
aa(lp782
F-5.25
aF17.0
aI1134
aI947
aa(lp783
F-5.25
aF17.25
aI1150
aI908
aa(lp784
F-5.25
aF17.5
aI1166
aI869
aa(lp785
F-5.25
aF18.0
aI1202
aI784
aa(lp786
F-5.25
aF18.5
aI1243
aI689
aa(lp787
F-5.25
aF18.75
aI1267
aI635
aa(lp788
F-5.25
aF19.0
aI1293
aI577
aa(lp789
F-5.25
aF19.25
aI1322
aI514
aa(lp790
F-5.0
aF1.5
aI1316
aI2266
aa(lp791
F-5.0
aF1.75
aI1281
aI2259
aa(lp792
F-5.0
aF2.0
aI1247
aI2252
aa(lp793
F-5.0
aF2.25
aI1215
aI2243
aa(lp794
F-5.0
aF2.5
aI1184
aI2234
aa(lp795
F-5.0
aF2.75
aI1156
aI2224
aa(lp796
F-5.0
aF3.25
aI1103
aI2202
aa(lp797
F-5.0
aF3.5
aI1080
aI2190
aa(lp798
F-5.0
aF3.75
aI1058
aI2178
aa(lp799
F-5.0
aF4.0
aI1038
aI2164
aa(lp800
F-5.0
aF4.25
aI1019
aI2151
aa(lp801
F-5.0
aF4.5
aI1002
aI2136
aa(lp802
F-5.0
aF5.0
aI972
aI2106
aa(lp803
F-5.0
aF5.25
aI959
aI2090
aa(lp804
F-5.0
aF5.5
aI947
aI2074
aa(lp805
F-5.0
aF5.75
aI936
aI2058
aa(lp806
F-5.0
aF6.0
aI926
aI2041
aa(lp807
F-5.0
aF6.25
aI918
aI2024
aa(lp808
F-5.0
aF6.75
aI904
aI1988
aa(lp809
F-5.0
aF7.0
aI898
aI1970
aa(lp810
F-5.0
aF7.25
aI893
aI1952
aa(lp811
F-5.0
aF7.5
aI889
aI1933
aa(lp812
F-5.0
aF8.0
aI883
aI1894
aa(lp813
F-5.0
aF8.5
aI880
aI1854
aa(lp814
F-5.0
aF8.75
aI879
aI1834
aa(lp815
F-5.0
aF9.0
aI879
aI1814
aa(lp816
F-5.0
aF9.25
aI879
aI1793
aa(lp817
F-5.0
aF10.0
aI884
aI1729
aa(lp818
F-5.0
aF10.25
aI887
aI1707
aa(lp819
F-5.0
aF10.75
aI893
aI1662
aa(lp820
F-5.0
aF11.0
aI897
aI1639
aa(lp821
F-5.0
aF11.5
aI906
aI1593
aa(lp822
F-5.0
aF11.75
aI911
aI1569
aa(lp823
F-5.0
aF12.0
aI917
aI1545
aa(lp824
F-5.0
aF12.25
aI923
aI1520
aa(lp825
F-5.0
aF12.5
aI929
aI1496
aa(lp826
F-5.0
aF12.75
aI936
aI1470
aa(lp827
F-5.0
aF13.0
aI943
aI1445
aa(lp828
F-5.0
aF13.5
aI959
aI1392
aa(lp829
F-5.0
aF14.0
aI976
aI1338
aa(lp830
F-5.0
aF14.25
aI985
aI1310
aa(lp831
F-5.0
aF15.0
aI1015
aI1223
aa(lp832
F-5.0
aF15.25
aI1026
aI1193
aa(lp833
F-5.0
aF15.5
aI1037
aI1162
aa(lp834
F-5.0
aF15.75
aI1049
aI1130
aa(lp835
F-5.0
aF16.25
aI1074
aI1065
aa(lp836
F-5.0
aF16.5
aI1088
aI1030
aa(lp837
F-5.0
aF16.75
aI1102
aI995
aa(lp838
F-5.0
aF17.0
aI1117
aI958
aa(lp839
F-5.0
aF17.5
aI1149
aI880
aa(lp840
F-5.0
aF17.75
aI1166
aI840
aa(lp841
F-5.0
aF18.0
aI1185
aI796
aa(lp842
F-5.0
aF18.25
aI1205
aI750
aa(lp843
F-5.0
aF18.5
aI1226
aI702
aa(lp844
F-5.0
aF18.75
aI1249
aI650
aa(lp845
F-5.0
aF19.0
aI1274
aI594
aa(lp846
F-5.0
aF19.25
aI1302
aI533
aa(lp847
F-5.0
aF19.5
aI1335
aI461
aa(lp848
F-4.75
aF1.25
aI1332
aI2292
aa(lp849
F-4.75
aF1.5
aI1294
aI2286
aa(lp850
F-4.75
aF1.75
aI1257
aI2279
aa(lp851
F-4.75
aF2.0
aI1222
aI2271
aa(lp852
F-4.75
aF2.25
aI1188
aI2263
aa(lp853
F-4.75
aF2.5
aI1157
aI2253
aa(lp854
F-4.75
aF2.75
aI1127
aI2243
aa(lp855
F-4.75
aF3.0
aI1100
aI2232
aa(lp856
F-4.75
aF3.25
aI1074
aI2220
aa(lp857
F-4.75
aF3.5
aI1050
aI2208
aa(lp858
F-4.75
aF3.75
aI1028
aI2195
aa(lp859
F-4.75
aF4.0
aI1008
aI2181
aa(lp860
F-4.75
aF4.25
aI989
aI2167
aa(lp861
F-4.75
aF4.5
aI972
aI2152
aa(lp862
F-4.75
aF4.75
aI956
aI2137
aa(lp863
F-4.75
aF5.5
aI917
aI2089
aa(lp864
F-4.75
aF5.75
aI907
aI2072
aa(lp865
F-4.75
aF6.0
aI898
aI2055
aa(lp866
F-4.75
aF6.25
aI890
aI2037
aa(lp867
F-4.75
aF6.75
aI876
aI2002
aa(lp868
F-4.75
aF7.0
aI871
aI1983
aa(lp869
F-4.75
aF7.25
aI866
aI1964
aa(lp870
F-4.75
aF7.5
aI863
aI1945
aa(lp871
F-4.75
aF7.75
aI860
aI1926
aa(lp872
F-4.75
aF8.0
aI857
aI1906
aa(lp873
F-4.75
aF8.25
aI856
aI1886
aa(lp874
F-4.75
aF8.5
aI855
aI1866
aa(lp875
F-4.75
aF9.0
aI855
aI1825
aa(lp876
F-4.75
aF9.25
aI856
aI1804
aa(lp877
F-4.75
aF9.5
aI857
aI1783
aa(lp878
F-4.75
aF9.75
aI859
aI1761
aa(lp879
F-4.75
aF10.0
aI861
aI1740
aa(lp880
F-4.75
aF10.5
aI868
aI1695
aa(lp881
F-4.75
aF11.0
aI876
aI1649
aa(lp882
F-4.75
aF11.25
aI880
aI1626
aa(lp883
F-4.75
aF11.5
aI885
aI1603
aa(lp884
F-4.75
aF11.75
aI891
aI1579
aa(lp885
F-4.75
aF12.25
aI903
aI1530
aa(lp886
F-4.75
aF13.0
aI924
aI1454
aa(lp887
F-4.75
aF13.25
aI932
aI1428
aa(lp888
F-4.75
aF13.5
aI940
aI1402
aa(lp889
F-4.75
aF14.0
aI957
aI1348
aa(lp890
F-4.75
aF14.5
aI976
aI1292
aa(lp891
F-4.75
aF15.0
aI997
aI1233
aa(lp892
F-4.75
aF15.25
aI1008
aI1203
aa(lp893
F-4.75
aF16.0
aI1044
aI1108
aa(lp894
F-4.75
aF16.25
aI1057
aI1075
aa(lp895
F-4.75
aF16.5
aI1071
aI1040
aa(lp896
F-4.75
aF16.75
aI1085
aI1005
aa(lp897
F-4.75
aF17.5
aI1132
aI892
aa(lp898
F-4.75
aF18.25
aI1188
aI762
aa(lp899
F-4.75
aF18.5
aI1209
aI714
aa(lp900
F-4.75
aF19.0
aI1256
aI609
aa(lp901
F-4.75
aF19.25
aI1284
aI548
aa(lp902
F-4.75
aF19.5
aI1315
aI481
aa(lp903
F-4.5
aF1.25
aI1311
aI2312
aa(lp904
F-4.5
aF1.5
aI1270
aI2306
aa(lp905
F-4.5
aF1.75
aI1231
aI2299
aa(lp906
F-4.5
aF2.0
aI1195
aI2291
aa(lp907
F-4.5
aF2.25
aI1160
aI2282
aa(lp908
F-4.5
aF2.5
aI1128
aI2272
aa(lp909
F-4.5
aF2.75
aI1098
aI2261
aa(lp910
F-4.5
aF3.0
aI1070
aI2250
aa(lp911
F-4.5
aF3.25
aI1044
aI2237
aa(lp912
F-4.5
aF3.5
aI1019
aI2225
aa(lp913
F-4.5
aF3.75
aI997
aI2211
aa(lp914
F-4.5
aF4.0
aI977
aI2197
aa(lp915
F-4.5
aF4.25
aI958
aI2183
aa(lp916
F-4.5
aF4.5
aI941
aI2168
aa(lp917
F-4.5
aF4.75
aI926
aI2152
aa(lp918
F-4.5
aF5.0
aI912
aI2136
aa(lp919
F-4.5
aF5.25
aI899
aI2120
aa(lp920
F-4.5
aF5.5
aI888
aI2103
aa(lp921
F-4.5
aF5.75
aI878
aI2086
aa(lp922
F-4.5
aF6.0
aI869
aI2068
aa(lp923
F-4.5
aF6.25
aI861
aI2051
aa(lp924
F-4.5
aF6.5
aI854
aI2033
aa(lp925
F-4.5
aF6.75
aI848
aI2014
aa(lp926
F-4.5
aF7.5
aI836
aI1957
aa(lp927
F-4.5
aF7.75
aI833
aI1938
aa(lp928
F-4.5
aF8.25
aI830
aI1898
aa(lp929
F-4.5
aF8.5
aI830
aI1877
aa(lp930
F-4.5
aF9.5
aI834
aI1793
aa(lp931
F-4.5
aF10.25
aI842
aI1727
aa(lp932
F-4.5
aF10.75
aI850
aI1682
aa(lp933
F-4.5
aF11.0
aI854
aI1659
aa(lp934
F-4.5
aF11.25
aI859
aI1636
aa(lp935
F-4.5
aF11.75
aI870
aI1588
aa(lp936
F-4.5
aF12.0
aI876
aI1564
aa(lp937
F-4.5
aF12.25
aI883
aI1539
aa(lp938
F-4.5
aF12.5
aI890
aI1514
aa(lp939
F-4.5
aF12.75
aI897
aI1489
aa(lp940
F-4.5
aF13.0
aI905
aI1463
aa(lp941
F-4.5
aF13.25
aI913
aI1437
aa(lp942
F-4.5
aF13.5
aI921
aI1411
aa(lp943
F-4.5
aF13.75
aI930
aI1384
aa(lp944
F-4.5
aF14.0
aI939
aI1357
aa(lp945
F-4.5
aF14.5
aI958
aI1301
aa(lp946
F-4.5
aF15.75
aI1014
aI1150
aa(lp947
F-4.5
aF16.0
aI1027
aI1117
aa(lp948
F-4.5
aF16.25
aI1040
aI1084
aa(lp949
F-4.5
aF16.5
aI1054
aI1050
aa(lp950
F-4.5
aF16.75
aI1068
aI1015
aa(lp951
F-4.5
aF17.0
aI1083
aI979
aa(lp952
F-4.5
aF17.25
aI1099
aI941
aa(lp953
F-4.5
aF17.75
aI1133
aI861
aa(lp954
F-4.5
aF18.0
aI1151
aI819
aa(lp955
F-4.5
aF18.5
aI1191
aI728
aa(lp956
F-4.5
aF18.75
aI1214
aI677
aa(lp957
F-4.5
aF19.0
aI1239
aI622
aa(lp958
F-4.5
aF19.25
aI1266
aI563
aa(lp959
F-4.5
aF19.5
aI1296
aI498
aa(lp960
F-4.5
aF19.75
aI1331
aI423
aa(lp961
F-4.25
aF1.0
aI1332
aI2338
aa(lp962
F-4.25
aF1.25
aI1288
aI2333
aa(lp963
F-4.25
aF1.5
aI1245
aI2326
aa(lp964
F-4.25
aF1.75
aI1205
aI2318
aa(lp965
F-4.25
aF2.0
aI1166
aI2310
aa(lp966
F-4.25
aF2.25
aI1131
aI2301
aa(lp967
F-4.25
aF2.5
aI1098
aI2290
aa(lp968
F-4.25
aF2.75
aI1067
aI2279
aa(lp969
F-4.25
aF3.0
aI1038
aI2267
aa(lp970
F-4.25
aF3.5
aI987
aI2241
aa(lp971
F-4.25
aF3.75
aI965
aI2227
aa(lp972
F-4.25
aF4.0
aI944
aI2213
aa(lp973
F-4.25
aF4.25
aI926
aI2198
aa(lp974
F-4.25
aF4.5
aI909
aI2183
aa(lp975
F-4.25
aF4.75
aI894
aI2167
aa(lp976
F-4.25
aF5.0
aI880
aI2151
aa(lp977
F-4.25
aF5.25
aI868
aI2134
aa(lp978
F-4.25
aF5.5
aI857
aI2117
aa(lp979
F-4.25
aF5.75
aI847
aI2099
aa(lp980
F-4.25
aF6.0
aI839
aI2081
aa(lp981
F-4.25
aF6.25
aI832
aI2063
aa(lp982
F-4.25
aF6.5
aI825
aI2045
aa(lp983
F-4.25
aF6.75
aI820
aI2026
aa(lp984
F-4.25
aF7.0
aI815
aI2007
aa(lp985
F-4.25
aF7.25
aI812
aI1988
aa(lp986
F-4.25
aF7.5
aI809
aI1968
aa(lp987
F-4.25
aF8.0
aI805
aI1929
aa(lp988
F-4.25
aF8.25
aI805
aI1908
aa(lp989
F-4.25
aF8.5
aI805
aI1888
aa(lp990
F-4.25
aF8.75
aI805
aI1867
aa(lp991
F-4.25
aF9.0
aI806
aI1846
aa(lp992
F-4.25
aF9.5
aI810
aI1803
aa(lp993
F-4.25
aF9.75
aI813
aI1781
aa(lp994
F-4.25
aF10.0
aI816
aI1759
aa(lp995
F-4.25
aF10.25
aI819
aI1737
aa(lp996
F-4.25
aF11.0
aI833
aI1668
aa(lp997
F-4.25
aF11.25
aI838
aI1645
aa(lp998
F-4.25
aF11.5
aI844
aI1621
aa(lp999
F-4.25
aF11.75
aI850
aI1597
aa(lp1000
F-4.25
aF12.0
aI856
aI1573
aa(lp1001
F-4.25
aF12.25
aI863
aI1548
aa(lp1002
F-4.25
aF12.5
aI870
aI1523
aa(lp1003
F-4.25
aF13.25
aI894
aI1446
aa(lp1004
F-4.25
aF13.5
aI902
aI1420
aa(lp1005
F-4.25
aF13.75
aI911
aI1393
aa(lp1006
F-4.25
aF14.0
aI921
aI1365
aa(lp1007
F-4.25
aF14.25
aI930
aI1338
aa(lp1008
F-4.25
aF14.75
aI951
aI1280
aa(lp1009
F-4.25
aF15.0
aI962
aI1251
aa(lp1010
F-4.25
aF15.25
aI973
aI1221
aa(lp1011
F-4.25
aF15.5
aI985
aI1190
aa(lp1012
F-4.25
aF15.75
aI997
aI1159
aa(lp1013
F-4.25
aF16.0
aI1010
aI1126
aa(lp1014
F-4.25
aF16.5
aI1037
aI1059
aa(lp1015
F-4.25
aF16.75
aI1051
aI1025
aa(lp1016
F-4.25
aF17.0
aI1066
aI989
aa(lp1017
F-4.25
aF17.25
aI1082
aI951
aa(lp1018
F-4.25
aF17.75
aI1116
aI872
aa(lp1019
F-4.25
aF18.25
aI1154
aI785
aa(lp1020
F-4.25
aF18.5
aI1175
aI738
aa(lp1021
F-4.25
aF18.75
aI1197
aI689
aa(lp1022
F-4.25
aF19.0
aI1221
aI636
aa(lp1023
F-4.25
aF19.25
aI1248
aI578
aa(lp1024
F-4.25
aF19.5
aI1278
aI513
aa(lp1025
F-4.25
aF19.75
aI1312
aI440
aa(lp1026
F-4.0
aF1.0
aI1310
aI2358
aa(lp1027
F-4.0
aF1.25
aI1263
aI2353
aa(lp1028
F-4.0
aF1.5
aI1218
aI2346
aa(lp1029
F-4.0
aF1.75
aI1176
aI2338
aa(lp1030
F-4.0
aF2.0
aI1136
aI2329
aa(lp1031
F-4.0
aF2.25
aI1100
aI2319
aa(lp1032
F-4.0
aF2.5
aI1066
aI2308
aa(lp1033
F-4.0
aF2.75
aI1034
aI2297
aa(lp1034
F-4.0
aF3.0
aI1005
aI2284
aa(lp1035
F-4.0
aF3.25
aI978
aI2271
aa(lp1036
F-4.0
aF3.5
aI953
aI2258
aa(lp1037
F-4.0
aF3.75
aI931
aI2243
aa(lp1038
F-4.0
aF4.0
aI911
aI2228
aa(lp1039
F-4.0
aF4.25
aI892
aI2213
aa(lp1040
F-4.0
aF4.5
aI876
aI2197
aa(lp1041
F-4.0
aF4.75
aI861
aI2181
aa(lp1042
F-4.0
aF5.0
aI848
aI2164
aa(lp1043
F-4.0
aF5.25
aI836
aI2147
aa(lp1044
F-4.0
aF5.5
aI825
aI2130
aa(lp1045
F-4.0
aF5.75
aI816
aI2112
aa(lp1046
F-4.0
aF6.0
aI808
aI2094
aa(lp1047
F-4.0
aF6.25
aI802
aI2075
aa(lp1048
F-4.0
aF6.5
aI796
aI2057
aa(lp1049
F-4.0
aF6.75
aI791
aI2038
aa(lp1050
F-4.0
aF7.25
aI784
aI1999
aa(lp1051
F-4.0
aF7.75
aI780
aI1959
aa(lp1052
F-4.0
aF8.0
aI779
aI1939
aa(lp1053
F-4.0
aF8.5
aI779
aI1898
aa(lp1054
F-4.0
aF8.75
aI780
aI1877
aa(lp1055
F-4.0
aF9.25
aI784
aI1834
aa(lp1056
F-4.0
aF9.5
aI786
aI1813
aa(lp1057
F-4.0
aF9.75
aI789
aI1791
aa(lp1058
F-4.0
aF10.0
aI793
aI1768
aa(lp1059
F-4.0
aF10.25
aI797
aI1746
aa(lp1060
F-4.0
aF10.5
aI801
aI1723
aa(lp1061
F-4.0
aF10.75
aI806
aI1700
aa(lp1062
F-4.0
aF11.0
aI811
aI1677
aa(lp1063
F-4.0
aF11.5
aI823
aI1630
aa(lp1064
F-4.0
aF11.75
aI829
aI1606
aa(lp1065
F-4.0
aF12.0
aI836
aI1581
aa(lp1066
F-4.0
aF12.25
aI843
aI1557
aa(lp1067
F-4.0
aF12.5
aI850
aI1532
aa(lp1068
F-4.0
aF12.75
aI858
aI1506
aa(lp1069
F-4.0
aF13.0
aI866
aI1481
aa(lp1070
F-4.0
aF13.25
aI875
aI1454
aa(lp1071
F-4.0
aF13.75
aI893
aI1401
aa(lp1072
F-4.0
aF14.0
aI902
aI1374
aa(lp1073
F-4.0
aF14.25
aI912
aI1346
aa(lp1074
F-4.0
aF14.5
aI923
aI1317
aa(lp1075
F-4.0
aF14.75
aI933
aI1289
aa(lp1076
F-4.0
aF15.25
aI956
aI1229
aa(lp1077
F-4.0
aF15.5
aI968
aI1198
aa(lp1078
F-4.0
aF15.75
aI980
aI1167
aa(lp1079
F-4.0
aF16.0
aI993
aI1135
aa(lp1080
F-4.0
aF16.75
aI1035
aI1033
aa(lp1081
F-4.0
aF17.0
aI1050
aI997
aa(lp1082
F-4.0
aF17.25
aI1066
aI960
aa(lp1083
F-4.0
aF17.5
aI1082
aI922
aa(lp1084
F-4.0
aF17.75
aI1100
aI881
aa(lp1085
F-4.0
aF18.0
aI1118
aI840
aa(lp1086
F-4.0
aF18.25
aI1138
aI795
aa(lp1087
F-4.0
aF18.5
aI1158
aI750
aa(lp1088
F-4.0
aF18.75
aI1180
aI701
aa(lp1089
F-4.0
aF19.0
aI1205
aI647
aa(lp1090
F-4.0
aF19.25
aI1231
aI590
aa(lp1091
F-4.0
aF19.5
aI1260
aI528
aa(lp1092
F-4.0
aF20.0
aI1333
aI373
aa(lp1093
F-3.75
aF0.75
aI1338
aI2383
aa(lp1094
F-3.75
aF1.0
aI1286
aI2379
aa(lp1095
F-3.75
aF1.25
aI1237
aI2373
aa(lp1096
F-3.75
aF1.5
aI1190
aI2365
aa(lp1097
F-3.75
aF1.75
aI1146
aI2357
aa(lp1098
F-3.75
aF2.0
aI1105
aI2348
aa(lp1099
F-3.75
aF2.25
aI1067
aI2337
aa(lp1100
F-3.75
aF2.5
aI1031
aI2326
aa(lp1101
F-3.75
aF2.75
aI998
aI2314
aa(lp1102
F-3.75
aF3.0
aI969
aI2301
aa(lp1103
F-3.75
aF3.5
aI918
aI2273
aa(lp1104
F-3.75
aF3.75
aI896
aI2258
aa(lp1105
F-3.75
aF4.0
aI876
aI2243
aa(lp1106
F-3.75
aF4.25
aI858
aI2227
aa(lp1107
F-3.75
aF4.5
aI841
aI2211
aa(lp1108
F-3.75
aF4.75
aI827
aI2195
aa(lp1109
F-3.75
aF5.0
aI814
aI2178
aa(lp1110
F-3.75
aF5.25
aI803
aI2160
aa(lp1111
F-3.75
aF5.5
aI793
aI2142
aa(lp1112
F-3.75
aF5.75
aI784
aI2124
aa(lp1113
F-3.75
aF6.0
aI777
aI2106
aa(lp1114
F-3.75
aF6.25
aI771
aI2087
aa(lp1115
F-3.75
aF6.5
aI765
aI2068
aa(lp1116
F-3.75
aF6.75
aI761
aI2049
aa(lp1117
F-3.75
aF7.0
aI758
aI2029
aa(lp1118
F-3.75
aF7.25
aI755
aI2010
aa(lp1119
F-3.75
aF7.75
aI753
aI1969
aa(lp1120
F-3.75
aF8.0
aI752
aI1949
aa(lp1121
F-3.75
aF8.25
aI753
aI1928
aa(lp1122
F-3.75
aF8.75
aI755
aI1886
aa(lp1123
F-3.75
aF9.0
aI757
aI1865
aa(lp1124
F-3.75
aF9.5
aI762
aI1822
aa(lp1125
F-3.75
aF9.75
aI766
aI1799
aa(lp1126
F-3.75
aF10.0
aI770
aI1777
aa(lp1127
F-3.75
aF10.25
aI774
aI1755
aa(lp1128
F-3.75
aF10.5
aI779
aI1732
aa(lp1129
F-3.75
aF10.75
aI784
aI1709
aa(lp1130
F-3.75
aF11.0
aI790
aI1685
aa(lp1131
F-3.75
aF11.5
aI802
aI1638
aa(lp1132
F-3.75
aF12.0
aI816
aI1589
aa(lp1133
F-3.75
aF12.25
aI823
aI1565
aa(lp1134
F-3.75
aF12.5
aI831
aI1539
aa(lp1135
F-3.75
aF12.75
aI839
aI1514
aa(lp1136
F-3.75
aF13.0
aI847
aI1488
aa(lp1137
F-3.75
aF13.25
aI856
aI1462
aa(lp1138
F-3.75
aF13.5
aI865
aI1436
aa(lp1139
F-3.75
aF13.75
aI875
aI1408
aa(lp1140
F-3.75
aF14.25
aI894
aI1354
aa(lp1141
F-3.75
aF14.5
aI905
aI1325
aa(lp1142
F-3.75
aF14.75
aI916
aI1296
aa(lp1143
F-3.75
aF15.0
aI927
aI1267
aa(lp1144
F-3.75
aF15.25
aI939
aI1237
aa(lp1145
F-3.75
aF15.5
aI951
aI1206
aa(lp1146
F-3.75
aF16.0
aI977
aI1142
aa(lp1147
F-3.75
aF16.25
aI990
aI1110
aa(lp1148
F-3.75
aF16.5
aI1004
aI1076
aa(lp1149
F-3.75
aF16.75
aI1019
aI1041
aa(lp1150
F-3.75
aF17.0
aI1034
aI1005
aa(lp1151
F-3.75
aF17.25
aI1050
aI968
aa(lp1152
F-3.75
aF17.75
aI1084
aI890
aa(lp1153
F-3.75
aF18.0
aI1102
aI849
aa(lp1154
F-3.75
aF18.25
aI1121
aI806
aa(lp1155
F-3.75
aF18.5
aI1142
aI760
aa(lp1156
F-3.75
aF18.75
aI1164
aI711
aa(lp1157
F-3.75
aF19.0
aI1188
aI659
aa(lp1158
F-3.75
aF19.25
aI1214
aI603
aa(lp1159
F-3.75
aF19.5
aI1243
aI541
aa(lp1160
F-3.75
aF20.0
aI1315
aI389
aa(lp1161
F-3.5
aF0.75
aI1316
aI2404
aa(lp1162
F-3.5
aF1.0
aI1260
aI2399
aa(lp1163
F-3.5
aF1.25
aI1209
aI2392
aa(lp1164
F-3.5
aF1.5
aI1159
aI2385
aa(lp1165
F-3.5
aF1.75
aI1113
aI2376
aa(lp1166
F-3.5
aF2.0
aI1070
aI2366
aa(lp1167
F-3.5
aF2.25
aI1031
aI2355
aa(lp1168
F-3.5
aF2.5
aI995
aI2343
aa(lp1169
F-3.5
aF2.75
aI962
aI2331
aa(lp1170
F-3.5
aF3.0
aI932
aI2317
aa(lp1171
F-3.5
aF3.25
aI905
aI2303
aa(lp1172
F-3.5
aF3.75
aI859
aI2273
aa(lp1173
F-3.5
aF4.0
aI839
aI2258
aa(lp1174
F-3.5
aF4.25
aI822
aI2241
aa(lp1175
F-3.5
aF4.5
aI806
aI2225
aa(lp1176
F-3.5
aF4.75
aI792
aI2208
aa(lp1177
F-3.5
aF5.0
aI779
aI2190
aa(lp1178
F-3.5
aF5.25
aI769
aI2172
aa(lp1179
F-3.5
aF5.5
aI760
aI2154
aa(lp1180
F-3.5
aF5.75
aI752
aI2136
aa(lp1181
F-3.5
aF6.0
aI745
aI2117
aa(lp1182
F-3.5
aF6.25
aI739
aI2098
aa(lp1183
F-3.5
aF6.5
aI735
aI2079
aa(lp1184
F-3.5
aF6.75
aI732
aI2059
aa(lp1185
F-3.5
aF7.5
aI725
aI2000
aa(lp1186
F-3.5
aF7.75
aI725
aI1979
aa(lp1187
F-3.5
aF8.5
aI728
aI1916
aa(lp1188
F-3.5
aF8.75
aI729
aI1895
aa(lp1189
F-3.5
aF9.25
aI735
aI1852
aa(lp1190
F-3.5
aF9.5
aI738
aI1830
aa(lp1191
F-3.5
aF9.75
aI742
aI1808
aa(lp1192
F-3.5
aF10.0
aI747
aI1785
aa(lp1193
F-3.5
aF10.25
aI751
aI1763
aa(lp1194
F-3.5
aF10.75
aI762
aI1717
aa(lp1195
F-3.5
aF11.0
aI768
aI1693
aa(lp1196
F-3.5
aF11.25
aI774
aI1670
aa(lp1197
F-3.5
aF11.5
aI781
aI1646
aa(lp1198
F-3.5
aF11.75
aI788
aI1621
aa(lp1199
F-3.5
aF12.25
aI803
aI1572
aa(lp1200
F-3.5
aF12.5
aI811
aI1547
aa(lp1201
F-3.5
aF12.75
aI820
aI1521
aa(lp1202
F-3.5
aF13.0
aI828
aI1496
aa(lp1203
F-3.5
aF13.75
aI856
aI1416
aa(lp1204
F-3.5
aF14.0
aI866
aI1389
aa(lp1205
F-3.5
aF14.25
aI877
aI1360
aa(lp1206
F-3.5
aF15.0
aI910
aI1274
aa(lp1207
F-3.5
aF15.25
aI922
aI1244
aa(lp1208
F-3.5
aF15.75
aI947
aI1182
aa(lp1209
F-3.5
aF16.0
aI960
aI1150
aa(lp1210
F-3.5
aF16.25
aI974
aI1117
aa(lp1211
F-3.5
aF16.5
aI988
aI1083
aa(lp1212
F-3.5
aF17.0
aI1018
aI1013
aa(lp1213
F-3.5
aF17.25
aI1034
aI976
aa(lp1214
F-3.5
aF17.5
aI1050
aI939
aa(lp1215
F-3.5
aF17.75
aI1068
aI899
aa(lp1216
F-3.5
aF18.0
aI1086
aI858
aa(lp1217
F-3.5
aF18.25
aI1106
aI814
aa(lp1218
F-3.5
aF18.5
aI1126
aI769
aa(lp1219
F-3.5
aF18.75
aI1148
aI721
aa(lp1220
F-3.5
aF19.0
aI1172
aI669
aa(lp1221
F-3.5
aF19.25
aI1198
aI613
aa(lp1222
F-3.5
aF19.5
aI1226
aI553
aa(lp1223
F-3.5
aF19.75
aI1259
aI483
aa(lp1224
F-3.5
aF20.0
aI1296
aI406
aa(lp1225
F-3.5
aF20.25
aI1343
aI308
aa(lp1226
F-3.25
aF0.75
aI1292
aI2424
aa(lp1227
F-3.25
aF1.0
aI1233
aI2419
aa(lp1228
F-3.25
aF1.25
aI1178
aI2412
aa(lp1229
F-3.25
aF1.5
aI1125
aI2404
aa(lp1230
F-3.25
aF1.75
aI1078
aI2394
aa(lp1231
F-3.25
aF2.0
aI1033
aI2384
aa(lp1232
F-3.25
aF2.25
aI993
aI2373
aa(lp1233
F-3.25
aF2.5
aI956
aI2360
aa(lp1234
F-3.25
aF2.75
aI922
aI2347
aa(lp1235
F-3.25
aF3.0
aI892
aI2333
aa(lp1236
F-3.25
aF3.25
aI866
aI2318
aa(lp1237
F-3.25
aF3.5
aI842
aI2303
aa(lp1238
F-3.25
aF4.0
aI801
aI2271
aa(lp1239
F-3.25
aF4.5
aI769
aI2237
aa(lp1240
F-3.25
aF4.75
aI755
aI2220
aa(lp1241
F-3.25
aF5.0
aI744
aI2202
aa(lp1242
F-3.25
aF5.25
aI734
aI2184
aa(lp1243
F-3.25
aF5.75
aI719
aI2147
aa(lp1244
F-3.25
aF6.0
aI713
aI2128
aa(lp1245
F-3.25
aF6.5
aI704
aI2089
aa(lp1246
F-3.25
aF6.75
aI701
aI2069
aa(lp1247
F-3.25
aF7.0
aI699
aI2049
aa(lp1248
F-3.25
aF7.25
aI698
aI2029
aa(lp1249
F-3.25
aF7.5
aI697
aI2009
aa(lp1250
F-3.25
aF7.75
aI697
aI1988
aa(lp1251
F-3.25
aF8.0
aI698
aI1967
aa(lp1252
F-3.25
aF8.25
aI699
aI1946
aa(lp1253
F-3.25
aF8.5
aI701
aI1925
aa(lp1254
F-3.25
aF8.75
aI704
aI1903
aa(lp1255
F-3.25
aF9.0
aI707
aI1882
aa(lp1256
F-3.25
aF9.25
aI710
aI1860
aa(lp1257
F-3.25
aF9.5
aI714
aI1838
aa(lp1258
F-3.25
aF9.75
aI719
aI1815
aa(lp1259
F-3.25
aF10.0
aI724
aI1793
aa(lp1260
F-3.25
aF10.25
aI729
aI1770
aa(lp1261
F-3.25
aF10.75
aI740
aI1724
aa(lp1262
F-3.25
aF11.0
aI747
aI1700
aa(lp1263
F-3.25
aF11.25
aI753
aI1677
aa(lp1264
F-3.25
aF11.5
aI760
aI1653
aa(lp1265
F-3.25
aF11.75
aI768
aI1628
aa(lp1266
F-3.25
aF12.5
aI792
aI1554
aa(lp1267
F-3.25
aF13.25
aI819
aI1476
aa(lp1268
F-3.25
aF13.5
aI828
aI1450
aa(lp1269
F-3.25
aF13.75
aI838
aI1423
aa(lp1270
F-3.25
aF14.25
aI859
aI1367
aa(lp1271
F-3.25
aF14.5
aI870
aI1339
aa(lp1272
F-3.25
aF15.0
aI893
aI1281
aa(lp1273
F-3.25
aF15.25
aI905
aI1251
aa(lp1274
F-3.25
aF16.0
aI944
aI1157
aa(lp1275
F-3.25
aF16.5
aI972
aI1090
aa(lp1276
F-3.25
aF17.0
aI1002
aI1021
aa(lp1277
F-3.25
aF17.25
aI1018
aI984
aa(lp1278
F-3.25
aF17.5
aI1035
aI946
aa(lp1279
F-3.25
aF17.75
aI1052
aI907
aa(lp1280
F-3.25
aF18.0
aI1071
aI865
aa(lp1281
F-3.25
aF18.5
aI1111
aI777
aa(lp1282
F-3.25
aF18.75
aI1133
aI729
aa(lp1283
F-3.25
aF19.0
aI1156
aI679
aa(lp1284
F-3.25
aF19.5
aI1210
aI564
aa(lp1285
F-3.25
aF19.75
aI1242
aI496
aa(lp1286
F-3.25
aF20.0
aI1279
aI419
aa(lp1287
F-3.25
aF20.25
aI1324
aI326
aa(lp1288
F-3.0
aF0.5
aI1332
aI2449
aa(lp1289
F-3.0
aF1.0
aI1203
aI2439
aa(lp1290
F-3.0
aF1.25
aI1145
aI2431
aa(lp1291
F-3.0
aF1.5
aI1090
aI2423
aa(lp1292
F-3.0
aF1.75
aI1039
aI2413
aa(lp1293
F-3.0
aF2.0
aI993
aI2402
aa(lp1294
F-3.0
aF2.25
aI952
aI2390
aa(lp1295
F-3.0
aF2.5
aI914
aI2377
aa(lp1296
F-3.0
aF2.75
aI880
aI2363
aa(lp1297
F-3.0
aF3.0
aI851
aI2348
aa(lp1298
F-3.0
aF3.25
aI823
aI2333
aa(lp1299
F-3.0
aF3.5
aI801
aI2317
aa(lp1300
F-3.0
aF3.75
aI779
aI2301
aa(lp1301
F-3.0
aF4.0
aI761
aI2284
aa(lp1302
F-3.0
aF4.25
aI744
aI2267
aa(lp1303
F-3.0
aF4.5
aI730
aI2250
aa(lp1304
F-3.0
aF4.75
aI718
aI2232
aa(lp1305
F-3.0
aF5.25
aI698
aI2195
aa(lp1306
F-3.0
aF5.5
aI691
aI2176
aa(lp1307
F-3.0
aF5.75
aI684
aI2157
aa(lp1308
F-3.0
aF6.0
aI679
aI2138
aa(lp1309
F-3.0
aF6.25
aI675
aI2118
aa(lp1310
F-3.0
aF7.0
aI669
aI2058
aa(lp1311
F-3.0
aF7.25
aI668
aI2038
aa(lp1312
F-3.0
aF7.5
aI668
aI2017
aa(lp1313
F-3.0
aF8.0
aI671
aI1975
aa(lp1314
F-3.0
aF8.25
aI673
aI1954
aa(lp1315
F-3.0
aF8.5
aI675
aI1933
aa(lp1316
F-3.0
aF8.75
aI678
aI1911
aa(lp1317
F-3.0
aF9.0
aI682
aI1889
aa(lp1318
F-3.0
aF9.25
aI686
aI1867
aa(lp1319
F-3.0
aF9.5
aI690
aI1845
aa(lp1320
F-3.0
aF9.75
aI695
aI1823
aa(lp1321
F-3.0
aF10.25
aI706
aI1777
aa(lp1322
F-3.0
aF10.5
aI712
aI1754
aa(lp1323
F-3.0
aF11.0
aI725
aI1707
aa(lp1324
F-3.0
aF11.5
aI740
aI1659
aa(lp1325
F-3.0
aF12.25
aI764
aI1585
aa(lp1326
F-3.0
aF12.75
aI781
aI1535
aa(lp1327
F-3.0
aF13.0
aI791
aI1508
aa(lp1328
F-3.0
aF13.25
aI800
aI1482
aa(lp1329
F-3.0
aF13.5
aI810
aI1456
aa(lp1330
F-3.0
aF13.75
aI820
aI1429
aa(lp1331
F-3.0
aF14.0
aI831
aI1401
aa(lp1332
F-3.0
aF14.25
aI842
aI1373
aa(lp1333
F-3.0
aF14.5
aI853
aI1345
aa(lp1334
F-3.0
aF15.0
aI876
aI1287
aa(lp1335
F-3.0
aF15.75
aI914
aI1195
aa(lp1336
F-3.0
aF16.0
aI928
aI1163
aa(lp1337
F-3.0
aF16.25
aI942
aI1130
aa(lp1338
F-3.0
aF16.5
aI956
aI1097
aa(lp1339
F-3.0
aF16.75
aI971
aI1063
aa(lp1340
F-3.0
aF17.25
aI1003
aI990
aa(lp1341
F-3.0
aF17.5
aI1020
aI952
aa(lp1342
F-3.0
aF18.0
aI1056
aI872
aa(lp1343
F-3.0
aF18.25
aI1075
aI830
aa(lp1344
F-3.0
aF18.5
aI1096
aI784
aa(lp1345
F-3.0
aF18.75
aI1118
aI737
aa(lp1346
F-3.0
aF19.0
aI1141
aI687
aa(lp1347
F-3.0
aF19.25
aI1167
aI632
aa(lp1348
F-3.0
aF19.5
aI1194
aI574
aa(lp1349
F-3.0
aF19.75
aI1226
aI507
aa(lp1350
F-3.0
aF20.0
aI1262
aI432
aa(lp1351
F-3.0
aF20.25
aI1306
aI341
aa(lp1352
F-2.75
aF0.5
aI1310
aI2469
aa(lp1353
F-2.75
aF0.75
aI1239
aI2465
aa(lp1354
F-2.75
aF1.0
aI1171
aI2458
aa(lp1355
F-2.75
aF1.25
aI1108
aI2450
aa(lp1356
F-2.75
aF1.5
aI1050
aI2441
aa(lp1357
F-2.75
aF1.75
aI998
aI2431
aa(lp1358
F-2.75
aF2.0
aI949
aI2419
aa(lp1359
F-2.75
aF2.25
aI907
aI2406
aa(lp1360
F-2.75
aF2.5
aI870
aI2392
aa(lp1361
F-2.75
aF2.75
aI835
aI2378
aa(lp1362
F-2.75
aF3.0
aI806
aI2363
aa(lp1363
F-2.75
aF3.25
aI779
aI2347
aa(lp1364
F-2.75
aF3.5
aI757
aI2331
aa(lp1365
F-2.75
aF3.75
aI736
aI2314
aa(lp1366
F-2.75
aF4.0
aI719
aI2297
aa(lp1367
F-2.75
aF4.25
aI703
aI2279
aa(lp1368
F-2.75
aF4.5
aI690
aI2261
aa(lp1369
F-2.75
aF4.75
aI679
aI2243
aa(lp1370
F-2.75
aF5.0
aI670
aI2224
aa(lp1371
F-2.75
aF5.25
aI662
aI2205
aa(lp1372
F-2.75
aF5.5
aI655
aI2186
aa(lp1373
F-2.75
aF5.75
aI650
aI2167
aa(lp1374
F-2.75
aF6.0
aI646
aI2147
aa(lp1375
F-2.75
aF6.25
aI643
aI2127
aa(lp1376
F-2.75
aF6.5
aI640
aI2107
aa(lp1377
F-2.75
aF6.75
aI639
aI2087
aa(lp1378
F-2.75
aF7.0
aI638
aI2067
aa(lp1379
F-2.75
aF7.25
aI638
aI2046
aa(lp1380
F-2.75
aF7.5
aI639
aI2025
aa(lp1381
F-2.75
aF7.75
aI641
aI2004
aa(lp1382
F-2.75
aF8.0
aI643
aI1983
aa(lp1383
F-2.75
aF8.5
aI649
aI1940
aa(lp1384
F-2.75
aF8.75
aI653
aI1918
aa(lp1385
F-2.75
aF9.0
aI657
aI1896
aa(lp1386
F-2.75
aF9.25
aI661
aI1874
aa(lp1387
F-2.75
aF9.5
aI666
aI1852
aa(lp1388
F-2.75
aF9.75
aI672
aI1829
aa(lp1389
F-2.75
aF10.0
aI677
aI1807
aa(lp1390
F-2.75
aF10.25
aI683
aI1784
aa(lp1391
F-2.75
aF10.5
aI690
aI1760
aa(lp1392
F-2.75
aF10.75
aI697
aI1737
aa(lp1393
F-2.75
aF11.0
aI704
aI1713
aa(lp1394
F-2.75
aF11.5
aI719
aI1665
aa(lp1395
F-2.75
aF11.75
aI727
aI1641
aa(lp1396
F-2.75
aF12.25
aI744
aI1591
aa(lp1397
F-2.75
aF12.5
aI753
aI1566
aa(lp1398
F-2.75
aF13.0
aI772
aI1514
aa(lp1399
F-2.75
aF13.25
aI782
aI1488
aa(lp1400
F-2.75
aF13.5
aI792
aI1461
aa(lp1401
F-2.75
aF14.0
aI813
aI1407
aa(lp1402
F-2.75
aF15.0
aI860
aI1292
aa(lp1403
F-2.75
aF15.25
aI872
aI1263
aa(lp1404
F-2.75
aF15.5
aI885
aI1232
aa(lp1405
F-2.75
aF15.75
aI898
aI1201
aa(lp1406
F-2.75
aF16.0
aI912
aI1169
aa(lp1407
F-2.75
aF16.25
aI926
aI1136
aa(lp1408
F-2.75
aF16.75
aI956
aI1068
aa(lp1409
F-2.75
aF17.25
aI988
aI996
aa(lp1410
F-2.75
aF17.75
aI1022
aI920
aa(lp1411
F-2.75
aF18.0
aI1041
aI879
aa(lp1412
F-2.75
aF18.25
aI1060
aI837
aa(lp1413
F-2.75
aF18.5
aI1081
aI792
aa(lp1414
F-2.75
aF18.75
aI1103
aI744
aa(lp1415
F-2.75
aF19.0
aI1126
aI695
aa(lp1416
F-2.75
aF19.25
aI1152
aI640
aa(lp1417
F-2.75
aF19.5
aI1179
aI583
aa(lp1418
F-2.75
aF19.75
aI1210
aI518
aa(lp1419
F-2.75
aF20.0
aI1245
aI445
aa(lp1420
F-2.75
aF20.25
aI1288
aI356
aa(lp1421
F-2.75
aF20.5
aI1345
aI239
aa(lp1422
F-2.5
aF0.5
aI1285
aI2490
aa(lp1423
F-2.5
aF0.75
aI1207
aI2485
aa(lp1424
F-2.5
aF1.0
aI1133
aI2478
aa(lp1425
F-2.5
aF1.25
aI1066
aI2469
aa(lp1426
F-2.5
aF1.5
aI1005
aI2459
aa(lp1427
F-2.5
aF1.75
aI950
aI2448
aa(lp1428
F-2.5
aF2.0
aI902
aI2435
aa(lp1429
F-2.5
aF2.25
aI858
aI2422
aa(lp1430
F-2.5
aF2.5
aI821
aI2408
aa(lp1431
F-2.5
aF2.75
aI788
aI2392
aa(lp1432
F-2.5
aF3.0
aI758
aI2377
aa(lp1433
F-2.5
aF3.25
aI733
aI2360
aa(lp1434
F-2.5
aF3.5
aI712
aI2343
aa(lp1435
F-2.5
aF3.75
aI692
aI2326
aa(lp1436
F-2.5
aF4.0
aI676
aI2308
aa(lp1437
F-2.5
aF4.25
aI662
aI2290
aa(lp1438
F-2.5
aF4.5
aI650
aI2272
aa(lp1439
F-2.5
aF4.75
aI639
aI2253
aa(lp1440
F-2.5
aF5.0
aI631
aI2234
aa(lp1441
F-2.5
aF5.25
aI624
aI2215
aa(lp1442
F-2.5
aF5.75
aI614
aI2176
aa(lp1443
F-2.5
aF6.0
aI611
aI2156
aa(lp1444
F-2.5
aF6.25
aI609
aI2136
aa(lp1445
F-2.5
aF6.75
aI607
aI2095
aa(lp1446
F-2.5
aF7.0
aI608
aI2074
aa(lp1447
F-2.5
aF7.25
aI608
aI2054
aa(lp1448
F-2.5
aF7.5
aI610
aI2033
aa(lp1449
F-2.5
aF7.75
aI613
aI2011
aa(lp1450
F-2.5
aF8.0
aI615
aI1990
aa(lp1451
F-2.5
aF8.25
aI619
aI1968
aa(lp1452
F-2.5
aF8.5
aI622
aI1947
aa(lp1453
F-2.5
aF8.75
aI627
aI1925
aa(lp1454
F-2.5
aF9.0
aI631
aI1903
aa(lp1455
F-2.5
aF9.25
aI637
aI1880
aa(lp1456
F-2.5
aF9.5
aI642
aI1858
aa(lp1457
F-2.5
aF9.75
aI648
aI1835
aa(lp1458
F-2.5
aF10.0
aI654
aI1813
aa(lp1459
F-2.5
aF10.5
aI668
aI1766
aa(lp1460
F-2.5
aF10.75
aI675
aI1743
aa(lp1461
F-2.5
aF11.75
aI707
aI1646
aa(lp1462
F-2.5
aF12.5
aI734
aI1571
aa(lp1463
F-2.5
aF12.75
aI744
aI1545
aa(lp1464
F-2.5
aF13.0
aI753
aI1520
aa(lp1465
F-2.5
aF13.25
aI764
aI1493
aa(lp1466
F-2.5
aF13.5
aI774
aI1467
aa(lp1467
F-2.5
aF14.0
aI796
aI1412
aa(lp1468
F-2.5
aF14.25
aI807
aI1384
aa(lp1469
F-2.5
aF14.5
aI819
aI1356
aa(lp1470
F-2.5
aF14.75
aI831
aI1327
aa(lp1471
F-2.5
aF15.0
aI843
aI1298
aa(lp1472
F-2.5
aF15.5
aI869
aI1237
aa(lp1473
F-2.5
aF16.0
aI896
aI1174
aa(lp1474
F-2.5
aF16.25
aI910
aI1142
aa(lp1475
F-2.5
aF16.5
aI925
aI1108
aa(lp1476
F-2.5
aF17.0
aI956
aI1039
aa(lp1477
F-2.5
aF17.25
aI972
aI1003
aa(lp1478
F-2.5
aF17.5
aI990
aI964
aa(lp1479
F-2.5
aF18.0
aI1026
aI885
aa(lp1480
F-2.5
aF18.25
aI1046
aI842
aa(lp1481
F-2.5
aF18.5
aI1066
aI799
aa(lp1482
F-2.5
aF18.75
aI1088
aI752
aa(lp1483
F-2.5
aF19.0
aI1112
aI701
aa(lp1484
F-2.5
aF19.25
aI1137
aI648
aa(lp1485
F-2.5
aF19.5
aI1164
aI591
aa(lp1486
F-2.5
aF19.75
aI1195
aI526
aa(lp1487
F-2.5
aF20.0
aI1230
aI454
aa(lp1488
F-2.5
aF20.25
aI1271
aI369
aa(lp1489
F-2.5
aF20.5
aI1327
aI255
aa(lp1490
F-2.25
aF0.25
aI1347
aI2513
aa(lp1491
F-2.25
aF0.5
aI1256
aI2510
aa(lp1492
F-2.25
aF0.75
aI1171
aI2504
aa(lp1493
F-2.25
aF1.0
aI1090
aI2497
aa(lp1494
F-2.25
aF1.25
aI1020
aI2488
aa(lp1495
F-2.25
aF1.5
aI955
aI2477
aa(lp1496
F-2.25
aF1.75
aI899
aI2465
aa(lp1497
F-2.25
aF2.0
aI850
aI2451
aa(lp1498
F-2.25
aF2.25
aI805
aI2437
aa(lp1499
F-2.25
aF2.5
aI768
aI2422
aa(lp1500
F-2.25
aF2.75
aI735
aI2406
aa(lp1501
F-2.25
aF3.0
aI708
aI2390
aa(lp1502
F-2.25
aF3.25
aI684
aI2373
aa(lp1503
F-2.25
aF3.5
aI663
aI2355
aa(lp1504
F-2.25
aF3.75
aI646
aI2337
aa(lp1505
F-2.25
aF4.0
aI630
aI2319
aa(lp1506
F-2.25
aF4.25
aI618
aI2301
aa(lp1507
F-2.25
aF4.5
aI607
aI2282
aa(lp1508
F-2.25
aF4.75
aI599
aI2263
aa(lp1509
F-2.25
aF5.0
aI592
aI2243
aa(lp1510
F-2.25
aF5.25
aI586
aI2224
aa(lp1511
F-2.25
aF5.5
aI581
aI2204
aa(lp1512
F-2.25
aF5.75
aI578
aI2184
aa(lp1513
F-2.25
aF6.0
aI576
aI2164
aa(lp1514
F-2.25
aF6.5
aI575
aI2123
aa(lp1515
F-2.25
aF6.75
aI575
aI2102
aa(lp1516
F-2.25
aF7.0
aI577
aI2081
aa(lp1517
F-2.25
aF7.25
aI579
aI2060
aa(lp1518
F-2.25
aF7.5
aI581
aI2039
aa(lp1519
F-2.25
aF7.75
aI584
aI2018
aa(lp1520
F-2.25
aF8.0
aI588
aI1996
aa(lp1521
F-2.25
aF8.25
aI591
aI1975
aa(lp1522
F-2.25
aF8.5
aI596
aI1953
aa(lp1523
F-2.25
aF8.75
aI601
aI1931
aa(lp1524
F-2.25
aF9.0
aI606
aI1909
aa(lp1525
F-2.25
aF9.25
aI612
aI1886
aa(lp1526
F-2.25
aF9.5
aI618
aI1864
aa(lp1527
F-2.25
aF9.75
aI624
aI1841
aa(lp1528
F-2.25
aF10.0
aI631
aI1818
aa(lp1529
F-2.25
aF10.25
aI638
aI1795
aa(lp1530
F-2.25
aF10.5
aI646
aI1771
aa(lp1531
F-2.25
aF10.75
aI653
aI1748
aa(lp1532
F-2.25
aF11.0
aI661
aI1724
aa(lp1533
F-2.25
aF11.25
aI670
aI1700
aa(lp1534
F-2.25
aF11.5
aI678
aI1676
aa(lp1535
F-2.25
aF11.75
aI687
aI1651
aa(lp1536
F-2.25
aF12.5
aI715
aI1576
aa(lp1537
F-2.25
aF12.75
aI725
aI1550
aa(lp1538
F-2.25
aF13.0
aI735
aI1524
aa(lp1539
F-2.25
aF14.25
aI790
aI1389
aa(lp1540
F-2.25
aF14.5
aI802
aI1361
aa(lp1541
F-2.25
aF14.75
aI814
aI1332
aa(lp1542
F-2.25
aF15.0
aI827
aI1302
aa(lp1543
F-2.25
aF15.25
aI840
aI1272
aa(lp1544
F-2.25
aF15.5
aI853
aI1242
aa(lp1545
F-2.25
aF16.25
aI895
aI1146
aa(lp1546
F-2.25
aF16.5
aI910
aI1113
aa(lp1547
F-2.25
aF17.0
aI941
aI1044
aa(lp1548
F-2.25
aF17.25
aI958
aI1007
aa(lp1549
F-2.25
aF17.5
aI975
aI970
aa(lp1550
F-2.25
aF17.75
aI993
aI931
aa(lp1551
F-2.25
aF18.0
aI1012
aI890
aa(lp1552
F-2.25
aF18.25
aI1031
aI849
aa(lp1553
F-2.25
aF18.5
aI1052
aI804
aa(lp1554
F-2.25
aF18.75
aI1074
aI757
aa(lp1555
F-2.25
aF19.0
aI1097
aI709
aa(lp1556
F-2.25
aF19.25
aI1122
aI656
aa(lp1557
F-2.25
aF19.5
aI1150
aI597
aa(lp1558
F-2.25
aF19.75
aI1180
aI535
aa(lp1559
F-2.25
aF20.25
aI1255
aI380
aa(lp1560
F-2.25
aF20.5
aI1308
aI272
aa(lp1561
F-2.0
aF0.25
aI1324
aI2534
aa(lp1562
F-2.0
aF0.5
aI1223
aI2530
aa(lp1563
F-2.0
aF0.75
aI1128
aI2524
aa(lp1564
F-2.0
aF1.0
aI1044
aI2516
aa(lp1565
F-2.0
aF1.25
aI967
aI2505
aa(lp1566
F-2.0
aF1.5
aI899
aI2494
aa(lp1567
F-2.0
aF1.75
aI841
aI2481
aa(lp1568
F-2.0
aF2.0
aI792
aI2466
aa(lp1569
F-2.0
aF2.25
aI749
aI2451
aa(lp1570
F-2.0
aF2.5
aI712
aI2435
aa(lp1571
F-2.0
aF2.75
aI680
aI2419
aa(lp1572
F-2.0
aF3.0
aI654
aI2402
aa(lp1573
F-2.0
aF3.25
aI631
aI2384
aa(lp1574
F-2.0
aF3.5
aI612
aI2366
aa(lp1575
F-2.0
aF3.75
aI597
aI2348
aa(lp1576
F-2.0
aF4.0
aI583
aI2329
aa(lp1577
F-2.0
aF4.25
aI573
aI2310
aa(lp1578
F-2.0
aF4.5
aI564
aI2291
aa(lp1579
F-2.0
aF4.75
aI557
aI2271
aa(lp1580
F-2.0
aF5.0
aI551
aI2252
aa(lp1581
F-2.0
aF5.25
aI547
aI2232
aa(lp1582
F-2.0
aF5.5
aI544
aI2212
aa(lp1583
F-2.0
aF6.0
aI541
aI2171
aa(lp1584
F-2.0
aF6.5
aI541
aI2130
aa(lp1585
F-2.0
aF6.75
aI543
aI2109
aa(lp1586
F-2.0
aF7.0
aI545
aI2088
aa(lp1587
F-2.0
aF7.25
aI548
aI2067
aa(lp1588
F-2.0
aF7.5
aI551
aI2045
aa(lp1589
F-2.0
aF7.75
aI555
aI2024
aa(lp1590
F-2.0
aF8.0
aI559
aI2002
aa(lp1591
F-2.0
aF8.25
aI564
aI1980
aa(lp1592
F-2.0
aF8.5
aI570
aI1958
aa(lp1593
F-2.0
aF8.75
aI575
aI1936
aa(lp1594
F-2.0
aF9.0
aI581
aI1914
aa(lp1595
F-2.0
aF9.5
aI594
aI1869
aa(lp1596
F-2.0
aF9.75
aI601
aI1846
aa(lp1597
F-2.0
aF10.0
aI608
aI1823
aa(lp1598
F-2.0
aF10.25
aI616
aI1800
aa(lp1599
F-2.0
aF10.5
aI624
aI1776
aa(lp1600
F-2.0
aF10.75
aI632
aI1753
aa(lp1601
F-2.0
aF11.0
aI640
aI1729
aa(lp1602
F-2.0
aF11.25
aI649
aI1705
aa(lp1603
F-2.0
aF11.5
aI658
aI1680
aa(lp1604
F-2.0
aF11.75
aI667
aI1656
aa(lp1605
F-2.0
aF12.25
aI686
aI1606
aa(lp1606
F-2.0
aF12.5
aI696
aI1580
aa(lp1607
F-2.0
aF12.75
aI706
aI1555
aa(lp1608
F-2.0
aF13.0
aI717
aI1529
aa(lp1609
F-2.0
aF13.25
aI728
aI1502
aa(lp1610
F-2.0
aF13.5
aI739
aI1475
aa(lp1611
F-2.0
aF13.75
aI750
aI1448
aa(lp1612
F-2.0
aF14.75
aI798
aI1336
aa(lp1613
F-2.0
aF15.0
aI811
aI1306
aa(lp1614
F-2.0
aF15.5
aI837
aI1246
aa(lp1615
F-2.0
aF15.75
aI851
aI1215
aa(lp1616
F-2.0
aF16.25
aI880
aI1151
aa(lp1617
F-2.0
aF16.5
aI895
aI1117
aa(lp1618
F-2.0
aF16.75
aI910
aI1084
aa(lp1619
F-2.0
aF17.25
aI943
aI1012
aa(lp1620
F-2.0
aF17.5
aI961
aI974
aa(lp1621
F-2.0
aF17.75
aI979
aI935
aa(lp1622
F-2.0
aF18.0
aI997
aI896
aa(lp1623
F-2.0
aF18.25
aI1017
aI854
aa(lp1624
F-2.0
aF18.5
aI1038
aI809
aa(lp1625
F-2.0
aF18.75
aI1060
aI763
aa(lp1626
F-2.0
aF19.0
aI1083
aI714
aa(lp1627
F-2.0
aF19.25
aI1108
aI662
aa(lp1628
F-2.0
aF19.5
aI1136
aI604
aa(lp1629
F-2.0
aF20.0
aI1199
aI473
aa(lp1630
F-2.0
aF20.25
aI1240
aI389
aa(lp1631
F-2.0
aF20.5
aI1291
aI285
aa(lp1632
F-1.75
aF0.25
aI1299
aI2554
aa(lp1633
F-1.75
aF0.5
aI1184
aI2550
aa(lp1634
F-1.75
aF0.75
aI1079
aI2543
aa(lp1635
F-1.75
aF1.0
aI985
aI2534
aa(lp1636
F-1.75
aF1.25
aI905
aI2523
aa(lp1637
F-1.75
aF1.5
aI834
aI2510
aa(lp1638
F-1.75
aF1.75
aI776
aI2496
aa(lp1639
F-1.75
aF2.0
aI727
aI2481
aa(lp1640
F-1.75
aF2.25
aI685
aI2465
aa(lp1641
F-1.75
aF2.5
aI650
aI2448
aa(lp1642
F-1.75
aF2.75
aI621
aI2431
aa(lp1643
F-1.75
aF3.0
aI597
aI2413
aa(lp1644
F-1.75
aF3.25
aI577
aI2395
aa(lp1645
F-1.75
aF3.5
aI560
aI2376
aa(lp1646
F-1.75
aF3.75
aI546
aI2357
aa(lp1647
F-1.75
aF4.0
aI535
aI2338
aa(lp1648
F-1.75
aF4.25
aI526
aI2319
aa(lp1649
F-1.75
aF4.5
aI519
aI2299
aa(lp1650
F-1.75
aF4.75
aI513
aI2279
aa(lp1651
F-1.75
aF5.0
aI509
aI2259
aa(lp1652
F-1.75
aF5.25
aI507
aI2239
aa(lp1653
F-1.75
aF5.5
aI505
aI2219
aa(lp1654
F-1.75
aF5.75
aI505
aI2198
aa(lp1655
F-1.75
aF6.25
aI506
aI2157
aa(lp1656
F-1.75
aF6.5
aI508
aI2136
aa(lp1657
F-1.75
aF6.75
aI510
aI2115
aa(lp1658
F-1.75
aF7.25
aI517
aI2072
aa(lp1659
F-1.75
aF7.5
aI522
aI2051
aa(lp1660
F-1.75
aF7.75
aI526
aI2029
aa(lp1661
F-1.75
aF8.0
aI531
aI2007
aa(lp1662
F-1.75
aF8.25
aI537
aI1985
aa(lp1663
F-1.75
aF8.5
aI543
aI1963
aa(lp1664
F-1.75
aF8.75
aI549
aI1941
aa(lp1665
F-1.75
aF9.25
aI563
aI1896
aa(lp1666
F-1.75
aF9.5
aI570
aI1873
aa(lp1667
F-1.75
aF9.75
aI578
aI1850
aa(lp1668
F-1.75
aF10.0
aI585
aI1827
aa(lp1669
F-1.75
aF10.25
aI593
aI1804
aa(lp1670
F-1.75
aF10.5
aI602
aI1780
aa(lp1671
F-1.75
aF10.75
aI610
aI1757
aa(lp1672
F-1.75
aF11.0
aI619
aI1733
aa(lp1673
F-1.75
aF11.25
aI628
aI1709
aa(lp1674
F-1.75
aF11.5
aI638
aI1684
aa(lp1675
F-1.75
aF11.75
aI647
aI1660
aa(lp1676
F-1.75
aF12.0
aI657
aI1635
aa(lp1677
F-1.75
aF12.25
aI667
aI1610
aa(lp1678
F-1.75
aF13.0
aI699
aI1532
aa(lp1679
F-1.75
aF13.25
aI710
aI1506
aa(lp1680
F-1.75
aF13.5
aI721
aI1479
aa(lp1681
F-1.75
aF13.75
aI733
aI1452
aa(lp1682
F-1.75
aF14.5
aI769
aI1368
aa(lp1683
F-1.75
aF15.0
aI795
aI1310
aa(lp1684
F-1.75
aF15.25
aI808
aI1280
aa(lp1685
F-1.75
aF16.0
aI850
aI1187
aa(lp1686
F-1.75
aF16.25
aI865
aI1154
aa(lp1687
F-1.75
aF16.75
aI896
aI1087
aa(lp1688
F-1.75
aF17.0
aI912
aI1052
aa(lp1689
F-1.75
aF17.25
aI929
aI1016
aa(lp1690
F-1.75
aF17.5
aI946
aI979
aa(lp1691
F-1.75
aF17.75
aI965
aI939
aa(lp1692
F-1.75
aF18.0
aI984
aI899
aa(lp1693
F-1.75
aF18.25
aI1003
aI858
aa(lp1694
F-1.75
aF18.5
aI1024
aI814
aa(lp1695
F-1.75
aF18.75
aI1046
aI768
aa(lp1696
F-1.75
aF19.0
aI1070
aI718
aa(lp1697
F-1.75
aF19.25
aI1095
aI666
aa(lp1698
F-1.75
aF19.5
aI1122
aI610
aa(lp1699
F-1.75
aF19.75
aI1152
aI548
aa(lp1700
F-1.75
aF20.0
aI1186
aI478
aa(lp1701
F-1.75
aF20.25
aI1225
aI398
aa(lp1702
F-1.75
aF20.5
aI1275
aI296
aa(lp1703
F-1.5
aF0.25
aI1268
aI2575
aa(lp1704
F-1.5
aF0.5
aI1136
aI2570
aa(lp1705
F-1.5
aF0.75
aI1018
aI2562
aa(lp1706
F-1.5
aF1.0
aI918
aI2551
aa(lp1707
F-1.5
aF1.25
aI831
aI2539
aa(lp1708
F-1.5
aF1.5
aI760
aI2525
aa(lp1709
F-1.5
aF1.75
aI703
aI2510
aa(lp1710
F-1.5
aF2.0
aI655
aI2494
aa(lp1711
F-1.5
aF2.25
aI616
aI2477
aa(lp1712
F-1.5
aF2.5
aI584
aI2459
aa(lp1713
F-1.5
aF2.75
aI557
aI2441
aa(lp1714
F-1.5
aF3.0
aI537
aI2423
aa(lp1715
F-1.5
aF3.25
aI519
aI2404
aa(lp1716
F-1.5
aF3.5
aI505
aI2385
aa(lp1717
F-1.5
aF3.75
aI495
aI2365
aa(lp1718
F-1.5
aF4.0
aI485
aI2346
aa(lp1719
F-1.5
aF4.25
aI478
aI2326
aa(lp1720
F-1.5
aF4.5
aI473
aI2306
aa(lp1721
F-1.5
aF4.75
aI470
aI2286
aa(lp1722
F-1.5
aF5.0
aI467
aI2266
aa(lp1723
F-1.5
aF5.25
aI466
aI2245
aa(lp1724
F-1.5
aF5.5
aI466
aI2225
aa(lp1725
F-1.5
aF5.75
aI467
aI2204
aa(lp1726
F-1.5
aF6.0
aI469
aI2183
aa(lp1727
F-1.5
aF6.25
aI471
aI2162
aa(lp1728
F-1.5
aF6.5
aI474
aI2141
aa(lp1729
F-1.5
aF6.75
aI478
aI2120
aa(lp1730
F-1.5
aF7.25
aI487
aI2077
aa(lp1731
F-1.5
aF7.5
aI492
aI2055
aa(lp1732
F-1.5
aF7.75
aI497
aI2034
aa(lp1733
F-1.5
aF8.0
aI503
aI2012
aa(lp1734
F-1.5
aF8.25
aI510
aI1990
aa(lp1735
F-1.5
aF8.5
aI517
aI1967
aa(lp1736
F-1.5
aF8.75
aI523
aI1945
aa(lp1737
F-1.5
aF9.25
aI538
aI1900
aa(lp1738
F-1.5
aF9.5
aI546
aI1877
aa(lp1739
F-1.5
aF9.75
aI554
aI1854
aa(lp1740
F-1.5
aF10.25
aI571
aI1808
aa(lp1741
F-1.5
aF10.5
aI580
aI1784
aa(lp1742
F-1.5
aF10.75
aI589
aI1760
aa(lp1743
F-1.5
aF11.25
aI608
aI1712
aa(lp1744
F-1.5
aF12.0
aI638
aI1638
aa(lp1745
F-1.5
aF12.25
aI648
aI1613
aa(lp1746
F-1.5
aF12.5
aI659
aI1588
aa(lp1747
F-1.5
aF12.75
aI670
aI1562
aa(lp1748
F-1.5
aF13.0
aI681
aI1536
aa(lp1749
F-1.5
aF13.75
aI716
aI1455
aa(lp1750
F-1.5
aF14.0
aI728
aI1428
aa(lp1751
F-1.5
aF14.25
aI740
aI1400
aa(lp1752
F-1.5
aF15.0
aI779
aI1313
aa(lp1753
F-1.5
aF15.25
aI793
aI1283
aa(lp1754
F-1.5
aF16.25
aI850
aI1158
aa(lp1755
F-1.5
aF16.5
aI866
aI1124
aa(lp1756
F-1.5
aF17.0
aI898
aI1055
aa(lp1757
F-1.5
aF17.25
aI915
aI1019
aa(lp1758
F-1.5
aF17.75
aI951
aI943
aa(lp1759
F-1.5
aF18.0
aI970
aI903
aa(lp1760
F-1.5
aF18.25
aI990
aI861
aa(lp1761
F-1.5
aF18.5
aI1011
aI817
aa(lp1762
F-1.5
aF18.75
aI1033
aI771
aa(lp1763
F-1.5
aF19.0
aI1056
aI723
aa(lp1764
F-1.5
aF19.25
aI1081
aI672
aa(lp1765
F-1.5
aF19.5
aI1108
aI616
aa(lp1766
F-1.5
aF19.75
aI1138
aI554
aa(lp1767
F-1.5
aF20.0
aI1172
aI485
aa(lp1768
F-1.5
aF20.25
aI1211
aI405
aa(lp1769
F-1.5
aF20.75
aI1337
aI150
aa(lp1770
F-1.25
aF0.25
aI1230
aI2595
aa(lp1771
F-1.25
aF0.5
aI1076
aI2589
aa(lp1772
F-1.25
aF0.75
aI942
aI2580
aa(lp1773
F-1.25
aF1.0
aI834
aI2568
aa(lp1774
F-1.25
aF1.25
aI747
aI2554
aa(lp1775
F-1.25
aF1.5
aI675
aI2539
aa(lp1776
F-1.25
aF1.75
aI621
aI2523
aa(lp1777
F-1.25
aF2.0
aI578
aI2505
aa(lp1778
F-1.25
aF2.25
aI541
aI2488
aa(lp1779
F-1.25
aF2.5
aI513
aI2469
aa(lp1780
F-1.25
aF2.75
aI492
aI2450
aa(lp1781
F-1.25
aF3.0
aI474
aI2431
aa(lp1782
F-1.25
aF3.25
aI459
aI2412
aa(lp1783
F-1.25
aF3.5
aI449
aI2392
aa(lp1784
F-1.25
aF3.75
aI440
aI2373
aa(lp1785
F-1.25
aF4.0
aI434
aI2353
aa(lp1786
F-1.25
aF4.25
aI429
aI2333
aa(lp1787
F-1.25
aF4.5
aI426
aI2312
aa(lp1788
F-1.25
aF4.75
aI425
aI2292
aa(lp1789
F-1.25
aF5.0
aI425
aI2271
aa(lp1790
F-1.25
aF5.25
aI425
aI2251
aa(lp1791
F-1.25
aF5.5
aI427
aI2230
aa(lp1792
F-1.25
aF5.75
aI429
aI2209
aa(lp1793
F-1.25
aF6.0
aI432
aI2188
aa(lp1794
F-1.25
aF6.25
aI436
aI2167
aa(lp1795
F-1.25
aF6.5
aI440
aI2146
aa(lp1796
F-1.25
aF6.75
aI445
aI2124
aa(lp1797
F-1.25
aF7.0
aI450
aI2103
aa(lp1798
F-1.25
aF7.25
aI456
aI2081
aa(lp1799
F-1.25
aF7.5
aI462
aI2059
aa(lp1800
F-1.25
aF8.0
aI476
aI2015
aa(lp1801
F-1.25
aF8.25
aI483
aI1993
aa(lp1802
F-1.25
aF8.5
aI490
aI1971
aa(lp1803
F-1.25
aF9.0
aI506
aI1926
aa(lp1804
F-1.25
aF9.25
aI514
aI1903
aa(lp1805
F-1.25
aF10.0
aI540
aI1834
aa(lp1806
F-1.25
aF10.25
aI549
aI1811
aa(lp1807
F-1.25
aF10.5
aI558
aI1787
aa(lp1808
F-1.25
aF10.75
aI568
aI1763
aa(lp1809
F-1.25
aF11.0
aI578
aI1739
aa(lp1810
F-1.25
aF11.75
aI608
aI1666
aa(lp1811
F-1.25
aF12.0
aI619
aI1641
aa(lp1812
F-1.25
aF13.25
aI675
aI1512
aa(lp1813
F-1.25
aF13.5
aI687
aI1485
aa(lp1814
F-1.25
aF13.75
aI699
aI1458
aa(lp1815
F-1.25
aF14.0
aI711
aI1431
aa(lp1816
F-1.25
aF14.25
aI724
aI1403
aa(lp1817
F-1.25
aF14.5
aI737
aI1374
aa(lp1818
F-1.25
aF14.75
aI750
aI1345
aa(lp1819
F-1.25
aF15.25
aI777
aI1286
aa(lp1820
F-1.25
aF15.5
aI791
aI1256
aa(lp1821
F-1.25
aF16.25
aI836
aI1160
aa(lp1822
F-1.25
aF16.5
aI851
aI1128
aa(lp1823
F-1.25
aF16.75
aI867
aI1094
aa(lp1824
F-1.25
aF17.0
aI884
aI1058
aa(lp1825
F-1.25
aF17.25
aI901
aI1022
aa(lp1826
F-1.25
aF17.5
aI919
aI985
aa(lp1827
F-1.25
aF17.75
aI937
aI947
aa(lp1828
F-1.25
aF18.0
aI956
aI907
aa(lp1829
F-1.25
aF18.5
aI997
aI822
aa(lp1830
F-1.25
aF18.75
aI1019
aI776
aa(lp1831
F-1.25
aF19.0
aI1043
aI727
aa(lp1832
F-1.25
aF19.5
aI1095
aI620
aa(lp1833
F-1.25
aF19.75
aI1125
aI559
aa(lp1834
F-1.25
aF20.0
aI1158
aI491
aa(lp1835
F-1.25
aF20.25
aI1198
aI410
aa(lp1836
F-1.25
aF20.5
aI1246
aI313
aa(lp1837
F-1.25
aF20.75
aI1322
aI159
aa(lp1838
F-1.0
aF0.25
aI1178
aI2615
aa(lp1839
F-1.0
aF0.5
aI993
aI2608
aa(lp1840
F-1.0
aF0.75
aI845
aI2597
aa(lp1841
F-1.0
aF1.0
aI733
aI2583
aa(lp1842
F-1.0
aF1.25
aI643
aI2568
aa(lp1843
F-1.0
aF1.5
aI580
aI2551
aa(lp1844
F-1.0
aF1.75
aI528
aI2534
aa(lp1845
F-1.0
aF2.0
aI490
aI2516
aa(lp1846
F-1.0
aF2.25
aI460
aI2497
aa(lp1847
F-1.0
aF2.5
aI437
aI2478
aa(lp1848
F-1.0
aF2.75
aI420
aI2458
aa(lp1849
F-1.0
aF3.0
aI406
aI2439
aa(lp1850
F-1.0
aF3.25
aI396
aI2419
aa(lp1851
F-1.0
aF3.5
aI389
aI2399
aa(lp1852
F-1.0
aF3.75
aI384
aI2379
aa(lp1853
F-1.0
aF4.0
aI381
aI2358
aa(lp1854
F-1.0
aF4.25
aI379
aI2338
aa(lp1855
F-1.0
aF4.5
aI379
aI2317
aa(lp1856
F-1.0
aF4.75
aI380
aI2297
aa(lp1857
F-1.0
aF5.0
aI381
aI2276
aa(lp1858
F-1.0
aF5.25
aI384
aI2255
aa(lp1859
F-1.0
aF5.5
aI387
aI2234
aa(lp1860
F-1.0
aF5.75
aI391
aI2213
aa(lp1861
F-1.0
aF6.0
aI396
aI2192
aa(lp1862
F-1.0
aF6.25
aI401
aI2171
aa(lp1863
F-1.0
aF6.5
aI406
aI2149
aa(lp1864
F-1.0
aF6.75
aI412
aI2128
aa(lp1865
F-1.0
aF7.0
aI419
aI2106
aa(lp1866
F-1.0
aF7.25
aI426
aI2084
aa(lp1867
F-1.0
aF7.5
aI432
aI2063
aa(lp1868
F-1.0
aF7.75
aI440
aI2041
aa(lp1869
F-1.0
aF8.0
aI447
aI2019
aa(lp1870
F-1.0
aF8.25
aI456
aI1996
aa(lp1871
F-1.0
aF8.5
aI464
aI1974
aa(lp1872
F-1.0
aF8.75
aI472
aI1952
aa(lp1873
F-1.0
aF9.0
aI481
aI1929
aa(lp1874
F-1.0
aF9.5
aI499
aI1883
aa(lp1875
F-1.0
aF9.75
aI508
aI1860
aa(lp1876
F-1.0
aF10.0
aI517
aI1837
aa(lp1877
F-1.0
aF10.25
aI527
aI1813
aa(lp1878
F-1.0
aF10.5
aI537
aI1790
aa(lp1879
F-1.0
aF10.75
aI547
aI1766
aa(lp1880
F-1.0
aF11.0
aI557
aI1742
aa(lp1881
F-1.0
aF11.25
aI567
aI1718
aa(lp1882
F-1.0
aF11.5
aI578
aI1693
aa(lp1883
F-1.0
aF11.75
aI589
aI1668
aa(lp1884
F-1.0
aF12.0
aI600
aI1643
aa(lp1885
F-1.0
aF12.25
aI611
aI1618
aa(lp1886
F-1.0
aF12.5
aI622
aI1593
aa(lp1887
F-1.0
aF12.75
aI634
aI1567
aa(lp1888
F-1.0
aF13.25
aI658
aI1514
aa(lp1889
F-1.0
aF14.0
aI695
aI1433
aa(lp1890
F-1.0
aF14.25
aI708
aI1405
aa(lp1891
F-1.0
aF14.75
aI734
aI1348
aa(lp1892
F-1.0
aF15.0
aI748
aI1318
aa(lp1893
F-1.0
aF15.25
aI762
aI1288
aa(lp1894
F-1.0
aF15.75
aI791
aI1227
aa(lp1895
F-1.0
aF16.0
aI806
aI1195
aa(lp1896
F-1.0
aF16.5
aI837
aI1130
aa(lp1897
F-1.0
aF16.75
aI853
aI1096
aa(lp1898
F-1.0
aF17.0
aI870
aI1061
aa(lp1899
F-1.0
aF17.25
aI888
aI1024
aa(lp1900
F-1.0
aF17.5
aI905
aI988
aa(lp1901
F-1.0
aF17.75
aI924
aI949
aa(lp1902
F-1.0
aF18.0
aI943
aI909
aa(lp1903
F-1.0
aF18.25
aI963
aI868
aa(lp1904
F-1.0
aF18.5
aI985
aI823
aa(lp1905
F-1.0
aF18.75
aI1007
aI778
aa(lp1906
F-1.0
aF19.0
aI1030
aI730
aa(lp1907
F-1.0
aF19.25
aI1055
aI679
aa(lp1908
F-1.0
aF19.5
aI1083
aI622
aa(lp1909
F-1.0
aF19.75
aI1113
aI561
aa(lp1910
F-1.0
aF20.0
aI1146
aI494
aa(lp1911
F-1.0
aF20.25
aI1185
aI415
aa(lp1912
F-1.0
aF20.5
aI1233
aI318
aa(lp1913
F-1.0
aF20.75
aI1303
aI177
aa(lp1914
F-0.75
aF0.25
aI1100
aI2635
aa(lp1915
F-0.75
aF0.5
aI877
aI2626
aa(lp1916
F-0.75
aF0.75
aI717
aI2613
aa(lp1917
F-0.75
aF1.0
aI601
aI2597
aa(lp1918
F-0.75
aF1.25
aI522
aI2580
aa(lp1919
F-0.75
aF1.5
aI466
aI2562
aa(lp1920
F-0.75
aF1.75
aI424
aI2543
aa(lp1921
F-0.75
aF2.0
aI395
aI2524
aa(lp1922
F-0.75
aF2.25
aI374
aI2504
aa(lp1923
F-0.75
aF2.5
aI357
aI2485
aa(lp1924
F-0.75
aF2.75
aI346
aI2465
aa(lp1925
F-0.75
aF3.25
aI332
aI2424
aa(lp1926
F-0.75
aF3.5
aI329
aI2404
aa(lp1927
F-0.75
aF3.75
aI328
aI2383
aa(lp1928
F-0.75
aF4.0
aI327
aI2363
aa(lp1929
F-0.75
aF4.25
aI329
aI2342
aa(lp1930
F-0.75
aF4.5
aI331
aI2321
aa(lp1931
F-0.75
aF5.0
aI338
aI2280
aa(lp1932
F-0.75
aF5.25
aI342
aI2259
aa(lp1933
F-0.75
aF5.75
aI353
aI2216
aa(lp1934
F-0.75
aF6.0
aI359
aI2195
aa(lp1935
F-0.75
aF6.25
aI366
aI2174
aa(lp1936
F-0.75
aF6.5
aI373
aI2152
aa(lp1937
F-0.75
aF7.0
aI387
aI2109
aa(lp1938
F-0.75
aF7.25
aI395
aI2087
aa(lp1939
F-0.75
aF7.5
aI403
aI2065
aa(lp1940
F-0.75
aF7.75
aI411
aI2043
aa(lp1941
F-0.75
aF8.0
aI420
aI2021
aa(lp1942
F-0.75
aF8.25
aI428
aI1999
aa(lp1943
F-0.75
aF8.5
aI438
aI1976
aa(lp1944
F-0.75
aF9.0
aI456
aI1931
aa(lp1945
F-0.75
aF9.5
aI475
aI1885
aa(lp1946
F-0.75
aF9.75
aI485
aI1862
aa(lp1947
F-0.75
aF10.0
aI495
aI1839
aa(lp1948
F-0.75
aF10.25
aI505
aI1815
aa(lp1949
F-0.75
aF10.5
aI515
aI1792
aa(lp1950
F-0.75
aF10.75
aI526
aI1768
aa(lp1951
F-0.75
aF11.25
aI547
aI1720
aa(lp1952
F-0.75
aF11.75
aI570
aI1670
aa(lp1953
F-0.75
aF12.0
aI581
aI1645
aa(lp1954
F-0.75
aF12.75
aI616
aI1569
aa(lp1955
F-0.75
aF13.0
aI628
aI1543
aa(lp1956
F-0.75
aF13.5
aI653
aI1489
aa(lp1957
F-0.75
aF13.75
aI666
aI1462
aa(lp1958
F-0.75
aF14.25
aI692
aI1407
aa(lp1959
F-0.75
aF14.75
aI719
aI1349
aa(lp1960
F-0.75
aF15.0
aI733
aI1320
aa(lp1961
F-0.75
aF15.25
aI747
aI1290
aa(lp1962
F-0.75
aF16.0
aI792
aI1197
aa(lp1963
F-0.75
aF16.25
aI807
aI1165
aa(lp1964
F-0.75
aF16.5
aI823
aI1132
aa(lp1965
F-0.75
aF16.75
aI840
aI1097
aa(lp1966
F-0.75
aF17.0
aI857
aI1062
aa(lp1967
F-0.75
aF17.25
aI874
aI1027
aa(lp1968
F-0.75
aF17.5
aI892
aI990
aa(lp1969
F-0.75
aF17.75
aI911
aI951
aa(lp1970
F-0.75
aF18.25
aI951
aI869
aa(lp1971
F-0.75
aF18.5
aI972
aI826
aa(lp1972
F-0.75
aF18.75
aI994
aI781
aa(lp1973
F-0.75
aF19.0
aI1018
aI732
aa(lp1974
F-0.75
aF19.25
aI1043
aI681
aa(lp1975
F-0.75
aF19.5
aI1070
aI626
aa(lp1976
F-0.75
aF19.75
aI1100
aI565
aa(lp1977
F-0.75
aF20.0
aI1134
aI496
aa(lp1978
F-0.75
aF20.25
aI1172
aI420
aa(lp1979
F-0.75
aF20.5
aI1220
aI323
aa(lp1980
F-0.75
aF20.75
aI1289
aI184
aa(lp1981
F-0.5
aF0.25
aI966
aI2654
aa(lp1982
F-0.5
aF0.5
aI699
aI2642
aa(lp1983
F-0.5
aF0.75
aI539
aI2626
aa(lp1984
F-0.5
aF1.0
aI441
aI2608
aa(lp1985
F-0.5
aF1.25
aI379
aI2589
aa(lp1986
F-0.5
aF1.5
aI340
aI2570
aa(lp1987
F-0.5
aF1.75
aI312
aI2550
aa(lp1988
F-0.5
aF2.0
aI294
aI2530
aa(lp1989
F-0.5
aF2.25
aI282
aI2510
aa(lp1990
F-0.5
aF2.5
aI274
aI2490
aa(lp1991
F-0.5
aF2.75
aI269
aI2469
aa(lp1992
F-0.5
aF3.0
aI267
aI2449
aa(lp1993
F-0.5
aF3.25
aI266
aI2428
aa(lp1994
F-0.5
aF3.5
aI267
aI2408
aa(lp1995
F-0.5
aF3.75
aI270
aI2387
aa(lp1996
F-0.5
aF4.0
aI273
aI2366
aa(lp1997
F-0.5
aF4.25
aI278
aI2345
aa(lp1998
F-0.5
aF4.5
aI283
aI2324
aa(lp1999
F-0.5
aF4.75
aI288
aI2303
aa(lp2000
F-0.5
aF5.0
aI294
aI2282
aa(lp2001
F-0.5
aF5.25
aI301
aI2261
aa(lp2002
F-0.5
aF5.5
aI308
aI2240
aa(lp2003
F-0.5
aF5.75
aI315
aI2219
aa(lp2004
F-0.5
aF6.0
aI323
aI2197
aa(lp2005
F-0.5
aF6.25
aI330
aI2176
aa(lp2006
F-0.5
aF6.5
aI339
aI2154
aa(lp2007
F-0.5
aF7.0
aI356
aI2111
aa(lp2008
F-0.5
aF7.25
aI365
aI2089
aa(lp2009
F-0.5
aF7.5
aI374
aI2067
aa(lp2010
F-0.5
aF7.75
aI383
aI2045
aa(lp2011
F-0.5
aF8.0
aI392
aI2023
aa(lp2012
F-0.5
aF8.5
aI411
aI1978
aa(lp2013
F-0.5
aF8.75
aI422
aI1955
aa(lp2014
F-0.5
aF9.0
aI431
aI1933
aa(lp2015
F-0.5
aF9.25
aI441
aI1910
aa(lp2016
F-0.5
aF9.5
aI452
aI1887
aa(lp2017
F-0.5
aF9.75
aI462
aI1864
aa(lp2018
F-0.5
aF10.0
aI473
aI1840
aa(lp2019
F-0.5
aF10.25
aI483
aI1817
aa(lp2020
F-0.5
aF10.5
aI494
aI1793
aa(lp2021
F-0.5
aF11.25
aI528
aI1721
aa(lp2022
F-0.5
aF11.5
aI539
aI1696
aa(lp2023
F-0.5
aF12.0
aI562
aI1647
aa(lp2024
F-0.5
aF12.75
aI599
aI1570
aa(lp2025
F-0.5
aF13.0
aI611
aI1544
aa(lp2026
F-0.5
aF13.25
aI624
aI1517
aa(lp2027
F-0.5
aF13.5
aI637
aI1490
aa(lp2028
F-0.5
aF13.75
aI650
aI1463
aa(lp2029
F-0.5
aF14.25
aI676
aI1408
aa(lp2030
F-0.5
aF14.5
aI690
aI1379
aa(lp2031
F-0.5
aF15.0
aI718
aI1321
aa(lp2032
F-0.5
aF15.25
aI732
aI1292
aa(lp2033
F-0.5
aF15.5
aI747
aI1261
aa(lp2034
F-0.5
aF16.0
aI778
aI1198
aa(lp2035
F-0.5
aF16.75
aI826
aI1099
aa(lp2036
F-0.5
aF17.25
aI861
aI1028
aa(lp2037
F-0.5
aF17.5
aI879
aI991
aa(lp2038
F-0.5
aF17.75
aI898
aI952
aa(lp2039
F-0.5
aF18.0
aI918
aI912
aa(lp2040
F-0.5
aF18.25
aI938
aI871
aa(lp2041
F-0.5
aF18.5
aI959
aI828
aa(lp2042
F-0.5
aF18.75
aI982
aI782
aa(lp2043
F-0.5
aF19.0
aI1006
aI733
aa(lp2044
F-0.5
aF19.25
aI1031
aI683
aa(lp2045
F-0.5
aF19.5
aI1058
aI628
aa(lp2046
F-0.5
aF20.0
aI1122
aI499
aa(lp2047
F-0.5
aF20.5
aI1208
aI326
aa(lp2048
F-0.5
aF20.75
aI1277
aI187
aa(lp2049
F-0.25
aF0.25
aI676
aI2671
aa(lp2050
F-0.25
aF0.5
aI414
aI2654
aa(lp2051
F-0.25
aF0.75
aI304
aI2635
aa(lp2052
F-0.25
aF1.0
aI249
aI2615
aa(lp2053
F-0.25
aF1.25
aI219
aI2595
aa(lp2054
F-0.25
aF1.5
aI202
aI2575
aa(lp2055
F-0.25
aF1.75
aI193
aI2554
aa(lp2056
F-0.25
aF2.0
aI188
aI2534
aa(lp2057
F-0.25
aF2.25
aI187
aI2513
aa(lp2058
F-0.25
aF2.5
aI188
aI2493
aa(lp2059
F-0.25
aF2.75
aI191
aI2472
aa(lp2060
F-0.25
aF3.0
aI195
aI2451
aa(lp2061
F-0.25
aF3.5
aI206
aI2410
aa(lp2062
F-0.25
aF3.75
aI212
aI2389
aa(lp2063
F-0.25
aF4.0
aI219
aI2368
aa(lp2064
F-0.25
aF4.25
aI226
aI2347
aa(lp2065
F-0.25
aF4.5
aI234
aI2326
aa(lp2066
F-0.25
aF4.75
aI242
aI2305
aa(lp2067
F-0.25
aF5.0
aI251
aI2284
aa(lp2068
F-0.25
aF5.25
aI259
aI2263
aa(lp2069
F-0.25
aF5.5
aI268
aI2241
aa(lp2070
F-0.25
aF5.75
aI277
aI2220
aa(lp2071
F-0.25
aF6.25
aI296
aI2177
aa(lp2072
F-0.25
aF6.75
aI315
aI2134
aa(lp2073
F-0.25
aF7.0
aI325
aI2112
aa(lp2074
F-0.25
aF7.25
aI335
aI2090
aa(lp2075
F-0.25
aF7.5
aI345
aI2068
aa(lp2076
F-0.25
aF7.75
aI355
aI2046
aa(lp2077
F-0.25
aF8.0
aI365
aI2024
aa(lp2078
F-0.25
aF8.5
aI386
aI1979
aa(lp2079
F-0.25
aF8.75
aI397
aI1956
aa(lp2080
F-0.25
aF9.0
aI407
aI1934
aa(lp2081
F-0.25
aF9.25
aI418
aI1911
aa(lp2082
F-0.25
aF9.5
aI429
aI1888
aa(lp2083
F-0.25
aF10.0
aI451
aI1841
aa(lp2084
F-0.25
aF10.25
aI462
aI1818
aa(lp2085
F-0.25
aF10.75
aI485
aI1770
aa(lp2086
F-0.25
aF11.25
aI508
aI1722
aa(lp2087
F-0.25
aF11.5
aI520
aI1697
aa(lp2088
F-0.25
aF11.75
aI532
aI1672
aa(lp2089
F-0.25
aF12.5
aI569
aI1597
aa(lp2090
F-0.25
aF13.0
aI594
aI1545
aa(lp2091
F-0.25
aF13.25
aI607
aI1518
aa(lp2092
F-0.25
aF14.0
aI647
aI1437
aa(lp2093
F-0.25
aF14.5
aI675
aI1380
aa(lp2094
F-0.25
aF14.75
aI689
aI1351
aa(lp2095
F-0.25
aF15.25
aI718
aI1292
aa(lp2096
F-0.25
aF15.5
aI733
aI1262
aa(lp2097
F-0.25
aF15.75
aI748
aI1231
aa(lp2098
F-0.25
aF16.0
aI764
aI1199
aa(lp2099
F-0.25
aF16.5
aI796
aI1134
aa(lp2100
F-0.25
aF16.75
aI813
aI1100
aa(lp2101
F-0.25
aF17.0
aI830
aI1065
aa(lp2102
F-0.25
aF17.25
aI848
aI1029
aa(lp2103
F-0.25
aF17.5
aI867
aI991
aa(lp2104
F-0.25
aF18.0
aI905
aI914
aa(lp2105
F-0.25
aF18.25
aI926
aI872
aa(lp2106
F-0.25
aF18.5
aI947
aI829
aa(lp2107
F-0.25
aF18.75
aI970
aI783
aa(lp2108
F-0.25
aF19.0
aI994
aI735
aa(lp2109
F-0.25
aF19.25
aI1019
aI684
aa(lp2110
F-0.25
aF19.5
aI1047
aI628
aa(lp2111
F-0.25
aF19.75
aI1077
aI568
aa(lp2112
F-0.25
aF20.25
aI1149
aI423
aa(lp2113
F-0.25
aF20.5
aI1196
aI329
aa(lp2114
F-0.25
aF20.75
aI1264
aI193
aa(lp2115
F0.0
aF0.5
aI12
aI2659
aa(lp2116
F0.0
aF0.75
aI26
aI2638
aa(lp2117
F0.0
aF1.0
aI37
aI2618
aa(lp2118
F0.0
aF1.25
aI49
aI2597
aa(lp2119
F0.0
aF1.5
aI60
aI2576
aa(lp2120
F0.0
aF1.75
aI70
aI2556
aa(lp2121
F0.0
aF2.0
aI81
aI2535
aa(lp2122
F0.0
aF2.5
aI102
aI2494
aa(lp2123
F0.0
aF2.75
aI112
aI2473
aa(lp2124
F0.0
aF3.0
aI123
aI2452
aa(lp2125
F0.0
aF3.25
aI134
aI2431
aa(lp2126
F0.0
aF3.75
aI154
aI2390
aa(lp2127
F0.0
aF4.0
aI165
aI2369
aa(lp2128
F0.0
aF4.25
aI175
aI2348
aa(lp2129
F0.0
aF4.5
aI186
aI2327
aa(lp2130
F0.0
aF5.0
aI208
aI2284
aa(lp2131
F0.0
aF5.25
aI218
aI2263
aa(lp2132
F0.0
aF5.5
aI229
aI2242
aa(lp2133
F0.0
aF6.0
aI250
aI2199
aa(lp2134
F0.0
aF6.5
aI272
aI2156
aa(lp2135
F0.0
aF6.75
aI283
aI2134
aa(lp2136
F-0.0
aF7.0
aI294
aI2112
aa(lp2137
F0.0
aF7.75
aI327
aI2046
aa(lp2138
F0.0
aF8.0
aI338
aI2024
aa(lp2139
F0.0
aF8.25
aI349
aI2002
aa(lp2140
F0.0
aF8.5
aI360
aI1979
aa(lp2141
F-0.0
aF9.0
aI383
aI1934
aa(lp2142
F0.0
aF9.5
aI406
aI1888
aa(lp2143
F0.0
aF10.0
aI429
aI1842
aa(lp2144
F0.0
aF10.25
aI441
aI1818
aa(lp2145
F0.0
aF10.5
aI453
aI1794
aa(lp2146
F-0.0
aF10.75
aI465
aI1770
aa(lp2147
F0.0
aF11.0
aI477
aI1746
aa(lp2148
F-0.0
aF11.25
aI489
aI1722
aa(lp2149
F0.0
aF12.0
aI526
aI1648
aa(lp2150
F0.0
aF12.25
aI539
aI1622
aa(lp2151
F0.0
aF13.25
aI591
aI1518
aa(lp2152
F0.0
aF13.5
aI604
aI1492
aa(lp2153
F0.0
aF13.75
aI618
aI1464
aa(lp2154
F0.0
aF14.5
aI660
aI1380
aa(lp2155
F0.0
aF14.75
aI674
aI1352
aa(lp2156
F0.0
aF15.0
aI689
aI1322
aa(lp2157
F0.0
aF15.25
aI704
aI1292
aa(lp2158
F-0.0
aF15.5
aI719
aI1262
aa(lp2159
F0.0
aF16.0
aI750
aI1200
aa(lp2160
F0.0
aF16.5
aI783
aI1134
aa(lp2161
F0.0
aF16.75
aI800
aI1100
aa(lp2162
F-0.0
aF17.5
aI854
aI992
aa(lp2163
F0.0
aF17.75
aI873
aI954
aa(lp2164
F0.0
aF18.0
aI893
aI914
aa(lp2165
F0.0
aF18.25
aI914
aI872
aa(lp2166
F0.0
aF18.5
aI936
aI828
aa(lp2167
F-0.0
aF18.75
aI958
aI784
aa(lp2168
F-0.0
aF19.25
aI1008
aI684
aa(lp2169
F0.0
aF19.5
aI1036
aI628
aa(lp2170
F-0.0
aF19.75
aI1066
aI568
aa(lp2171
F-0.0
aF20.0
aI1099
aI502
aa(lp2172
F0.0
aF20.25
aI1138
aI424
aa(lp2173
F0.0
aF20.5
aI1185
aI330
aa(lp2174
F0.0
aF20.75
aI1253
aI194
aa(lp2175
F0.25
aF2.25
aI0
aI2513
aa(lp2176
F0.25
aF2.5
aI16
aI2493
aa(lp2177
F0.25
aF2.75
aI35
aI2472
aa(lp2178
F0.25
aF3.0
aI52
aI2451
aa(lp2179
F0.25
aF3.5
aI83
aI2410
aa(lp2180
F0.25
aF3.75
aI98
aI2389
aa(lp2181
F0.25
aF4.0
aI112
aI2368
aa(lp2182
F0.25
aF4.25
aI125
aI2347
aa(lp2183
F0.25
aF4.5
aI139
aI2326
aa(lp2184
F0.25
aF4.75
aI152
aI2305
aa(lp2185
F0.25
aF5.0
aI165
aI2284
aa(lp2186
F0.25
aF5.25
aI177
aI2263
aa(lp2187
F0.25
aF5.5
aI190
aI2241
aa(lp2188
F0.25
aF5.75
aI202
aI2220
aa(lp2189
F0.25
aF6.25
aI227
aI2177
aa(lp2190
F0.25
aF6.75
aI251
aI2134
aa(lp2191
F0.25
aF7.0
aI263
aI2112
aa(lp2192
F0.25
aF7.25
aI275
aI2090
aa(lp2193
F0.25
aF7.5
aI287
aI2068
aa(lp2194
F0.25
aF7.75
aI299
aI2046
aa(lp2195
F0.25
aF8.0
aI311
aI2024
aa(lp2196
F0.25
aF8.5
aI335
aI1979
aa(lp2197
F0.25
aF8.75
aI347
aI1956
aa(lp2198
F0.25
aF9.0
aI359
aI1934
aa(lp2199
F0.25
aF9.25
aI371
aI1911
aa(lp2200
F0.25
aF9.5
aI383
aI1888
aa(lp2201
F0.25
aF10.0
aI408
aI1841
aa(lp2202
F0.25
aF10.25
aI420
aI1818
aa(lp2203
F0.25
aF10.75
aI445
aI1770
aa(lp2204
F0.25
aF11.25
aI470
aI1722
aa(lp2205
F0.25
aF11.5
aI483
aI1697
aa(lp2206
F0.25
aF11.75
aI496
aI1672
aa(lp2207
F0.25
aF12.5
aI534
aI1597
aa(lp2208
F0.25
aF13.0
aI561
aI1545
aa(lp2209
F0.25
aF13.25
aI575
aI1518
aa(lp2210
F0.25
aF14.0
aI616
aI1437
aa(lp2211
F0.25
aF14.5
aI645
aI1380
aa(lp2212
F0.25
aF14.75
aI660
aI1351
aa(lp2213
F0.25
aF15.25
aI690
aI1292
aa(lp2214
F0.25
aF15.5
aI705
aI1262
aa(lp2215
F0.25
aF15.75
aI721
aI1231
aa(lp2216
F0.25
aF16.0
aI737
aI1199
aa(lp2217
F0.25
aF16.5
aI770
aI1134
aa(lp2218
F0.25
aF16.75
aI787
aI1100
aa(lp2219
F0.25
aF17.0
aI805
aI1065
aa(lp2220
F0.25
aF17.25
aI823
aI1029
aa(lp2221
F0.25
aF17.5
aI842
aI991
aa(lp2222
F0.25
aF18.0
aI881
aI914
aa(lp2223
F0.25
aF18.25
aI902
aI872
aa(lp2224
F0.25
aF18.5
aI924
aI829
aa(lp2225
F0.25
aF18.75
aI947
aI783
aa(lp2226
F0.25
aF19.0
aI971
aI735
aa(lp2227
F0.25
aF19.25
aI997
aI684
aa(lp2228
F0.25
aF19.5
aI1025
aI628
aa(lp2229
F0.25
aF19.75
aI1055
aI568
aa(lp2230
F0.25
aF20.25
aI1128
aI423
aa(lp2231
F0.25
aF20.5
aI1175
aI329
aa(lp2232
F0.25
aF20.75
aI1243
aI193
aa(lp2233
F0.5
aF3.25
aI4
aI2428
aa(lp2234
F0.5
aF3.5
aI25
aI2408
aa(lp2235
F0.5
aF3.75
aI42
aI2387
aa(lp2236
F0.5
aF4.0
aI60
aI2366
aa(lp2237
F0.5
aF4.25
aI76
aI2345
aa(lp2238
F0.5
aF4.5
aI93
aI2324
aa(lp2239
F0.5
aF4.75
aI108
aI2303
aa(lp2240
F0.5
aF5.0
aI123
aI2282
aa(lp2241
F0.5
aF5.25
aI138
aI2261
aa(lp2242
F0.5
aF5.5
aI152
aI2240
aa(lp2243
F0.5
aF5.75
aI166
aI2219
aa(lp2244
F0.5
aF6.0
aI180
aI2197
aa(lp2245
F0.5
aF6.25
aI193
aI2176
aa(lp2246
F0.5
aF6.5
aI207
aI2154
aa(lp2247
F0.5
aF7.0
aI233
aI2111
aa(lp2248
F0.5
aF7.25
aI246
aI2089
aa(lp2249
F0.5
aF7.5
aI259
aI2067
aa(lp2250
F0.5
aF7.75
aI272
aI2045
aa(lp2251
F0.5
aF8.0
aI285
aI2023
aa(lp2252
F0.5
aF8.5
aI310
aI1978
aa(lp2253
F0.5
aF8.75
aI323
aI1955
aa(lp2254
F0.5
aF9.0
aI336
aI1933
aa(lp2255
F0.5
aF9.25
aI349
aI1910
aa(lp2256
F0.5
aF9.5
aI361
aI1887
aa(lp2257
F0.5
aF9.75
aI374
aI1864
aa(lp2258
F0.5
aF10.0
aI387
aI1840
aa(lp2259
F0.5
aF10.25
aI400
aI1817
aa(lp2260
F0.5
aF10.5
aI413
aI1793
aa(lp2261
F0.5
aF11.25
aI451
aI1721
aa(lp2262
F0.5
aF11.5
aI465
aI1696
aa(lp2263
F0.5
aF12.0
aI491
aI1647
aa(lp2264
F0.5
aF12.75
aI531
aI1570
aa(lp2265
F0.5
aF13.0
aI545
aI1544
aa(lp2266
F0.5
aF13.25
aI559
aI1517
aa(lp2267
F0.5
aF13.5
aI573
aI1490
aa(lp2268
F0.5
aF13.75
aI587
aI1463
aa(lp2269
F0.5
aF14.25
aI616
aI1408
aa(lp2270
F0.5
aF14.5
aI631
aI1379
aa(lp2271
F0.5
aF15.0
aI661
aI1321
aa(lp2272
F0.5
aF15.25
aI676
aI1292
aa(lp2273
F0.5
aF15.5
aI692
aI1261
aa(lp2274
F0.5
aF16.0
aI724
aI1198
aa(lp2275
F0.5
aF16.75
aI775
aI1099
aa(lp2276
F0.5
aF17.25
aI811
aI1028
aa(lp2277
F0.5
aF17.5
aI830
aI991
aa(lp2278
F0.5
aF17.75
aI850
aI952
aa(lp2279
F0.5
aF18.0
aI870
aI912
aa(lp2280
F0.5
aF18.25
aI891
aI871
aa(lp2281
F0.5
aF18.5
aI913
aI828
aa(lp2282
F0.5
aF18.75
aI936
aI782
aa(lp2283
F0.5
aF19.0
aI961
aI733
aa(lp2284
F0.5
aF19.25
aI986
aI683
aa(lp2285
F0.5
aF19.5
aI1014
aI628
aa(lp2286
F0.5
aF20.0
aI1079
aI499
aa(lp2287
F0.5
aF20.5
aI1166
aI326
aa(lp2288
F0.5
aF20.75
aI1236
aI187
aa(lp2289
F0.75
aF4.0
aI9
aI2363
aa(lp2290
F0.75
aF4.25
aI28
aI2342
aa(lp2291
F0.75
aF4.5
aI47
aI2321
aa(lp2292
F0.75
aF5.0
aI82
aI2280
aa(lp2293
F0.75
aF5.25
aI99
aI2259
aa(lp2294
F0.75
aF5.75
aI130
aI2216
aa(lp2295
F0.75
aF6.0
aI145
aI2195
aa(lp2296
F0.75
aF6.25
aI160
aI2174
aa(lp2297
F0.75
aF6.5
aI175
aI2152
aa(lp2298
F0.75
aF7.0
aI204
aI2109
aa(lp2299
F0.75
aF7.25
aI218
aI2087
aa(lp2300
F0.75
aF7.5
aI232
aI2065
aa(lp2301
F0.75
aF7.75
aI246
aI2043
aa(lp2302
F0.75
aF8.0
aI259
aI2021
aa(lp2303
F0.75
aF8.25
aI273
aI1999
aa(lp2304
F0.75
aF8.5
aI286
aI1976
aa(lp2305
F0.75
aF9.0
aI313
aI1931
aa(lp2306
F0.75
aF9.5
aI340
aI1885
aa(lp2307
F0.75
aF9.75
aI353
aI1862
aa(lp2308
F0.75
aF10.0
aI366
aI1839
aa(lp2309
F0.75
aF10.25
aI380
aI1815
aa(lp2310
F0.75
aF10.5
aI393
aI1792
aa(lp2311
F0.75
aF10.75
aI406
aI1768
aa(lp2312
F0.75
aF11.25
aI433
aI1719
aa(lp2313
F0.75
aF11.75
aI460
aI1670
aa(lp2314
F0.75
aF12.0
aI474
aI1645
aa(lp2315
F0.75
aF12.75
aI515
aI1569
aa(lp2316
F0.75
aF13.0
aI529
aI1543
aa(lp2317
F0.75
aF13.5
aI558
aI1489
aa(lp2318
F0.75
aF13.75
aI572
aI1462
aa(lp2319
F0.75
aF14.25
aI601
aI1407
aa(lp2320
F0.75
aF14.75
aI632
aI1349
aa(lp2321
F0.75
aF15.0
aI647
aI1320
aa(lp2322
F0.75
aF15.25
aI663
aI1290
aa(lp2323
F0.75
aF16.0
aI711
aI1197
aa(lp2324
F0.75
aF16.25
aI728
aI1165
aa(lp2325
F0.75
aF16.5
aI745
aI1132
aa(lp2326
F0.75
aF16.75
aI763
aI1097
aa(lp2327
F0.75
aF17.0
aI781
aI1062
aa(lp2328
F0.75
aF17.25
aI799
aI1027
aa(lp2329
F0.75
aF17.5
aI818
aI990
aa(lp2330
F0.75
aF17.75
aI838
aI951
aa(lp2331
F0.75
aF18.25
aI880
aI869
aa(lp2332
F0.75
aF18.5
aI902
aI826
aa(lp2333
F0.75
aF18.75
aI925
aI781
aa(lp2334
F0.75
aF19.0
aI950
aI732
aa(lp2335
F0.75
aF19.25
aI976
aI681
aa(lp2336
F0.75
aF19.5
aI1004
aI626
aa(lp2337
F0.75
aF19.75
aI1035
aI565
aa(lp2338
F0.75
aF20.0
aI1070
aI496
aa(lp2339
F0.75
aF20.25
aI1108
aI420
aa(lp2340
F0.75
aF20.5
aI1157
aI323
aa(lp2341
F0.75
aF20.75
aI1227
aI184
aa(lp2342
F1.0
aF4.5
aI3
aI2317
aa(lp2343
F1.0
aF4.75
aI23
aI2297
aa(lp2344
F1.0
aF5.0
aI42
aI2276
aa(lp2345
F1.0
aF5.25
aI60
aI2255
aa(lp2346
F1.0
aF5.5
aI78
aI2234
aa(lp2347
F1.0
aF5.75
aI95
aI2213
aa(lp2348
F1.0
aF6.0
aI112
aI2192
aa(lp2349
F1.0
aF6.25
aI128
aI2171
aa(lp2350
F1.0
aF6.5
aI144
aI2149
aa(lp2351
F1.0
aF6.75
aI159
aI2128
aa(lp2352
F1.0
aF7.0
aI175
aI2106
aa(lp2353
F1.0
aF7.25
aI190
aI2084
aa(lp2354
F1.0
aF7.5
aI204
aI2063
aa(lp2355
F1.0
aF7.75
aI219
aI2041
aa(lp2356
F1.0
aF8.0
aI234
aI2019
aa(lp2357
F1.0
aF8.25
aI248
aI1996
aa(lp2358
F1.0
aF8.5
aI262
aI1974
aa(lp2359
F1.0
aF8.75
aI276
aI1952
aa(lp2360
F1.0
aF9.0
aI290
aI1929
aa(lp2361
F1.0
aF9.5
aI318
aI1883
aa(lp2362
F1.0
aF9.75
aI332
aI1860
aa(lp2363
F1.0
aF10.0
aI346
aI1837
aa(lp2364
F1.0
aF10.25
aI360
aI1813
aa(lp2365
F1.0
aF10.5
aI373
aI1790
aa(lp2366
F1.0
aF10.75
aI387
aI1766
aa(lp2367
F1.0
aF11.0
aI401
aI1742
aa(lp2368
F1.0
aF11.25
aI415
aI1718
aa(lp2369
F1.0
aF11.5
aI429
aI1693
aa(lp2370
F1.0
aF11.75
aI443
aI1668
aa(lp2371
F1.0
aF12.0
aI457
aI1643
aa(lp2372
F1.0
aF12.25
aI471
aI1618
aa(lp2373
F1.0
aF12.5
aI485
aI1593
aa(lp2374
F1.0
aF12.75
aI499
aI1567
aa(lp2375
F1.0
aF13.25
aI528
aI1514
aa(lp2376
F1.0
aF14.0
aI572
aI1433
aa(lp2377
F1.0
aF14.25
aI587
aI1405
aa(lp2378
F1.0
aF14.75
aI618
aI1348
aa(lp2379
F1.0
aF15.0
aI634
aI1318
aa(lp2380
F1.0
aF15.25
aI649
aI1289
aa(lp2381
F1.0
aF15.75
aI682
aI1227
aa(lp2382
F1.0
aF16.0
aI699
aI1195
aa(lp2383
F1.0
aF16.5
aI733
aI1130
aa(lp2384
F1.0
aF16.75
aI751
aI1096
aa(lp2385
F1.0
aF17.0
aI769
aI1061
aa(lp2386
F1.0
aF17.25
aI788
aI1024
aa(lp2387
F1.0
aF17.5
aI807
aI988
aa(lp2388
F1.0
aF17.75
aI827
aI949
aa(lp2389
F1.0
aF18.0
aI848
aI909
aa(lp2390
F1.0
aF18.25
aI869
aI868
aa(lp2391
F1.0
aF18.5
aI892
aI823
aa(lp2392
F1.0
aF18.75
aI915
aI778
aa(lp2393
F1.0
aF19.0
aI940
aI730
aa(lp2394
F1.0
aF19.25
aI966
aI679
aa(lp2395
F1.0
aF19.5
aI995
aI622
aa(lp2396
F1.0
aF19.75
aI1026
aI561
aa(lp2397
F1.0
aF20.0
aI1060
aI494
aa(lp2398
F1.0
aF20.25
aI1100
aI415
aa(lp2399
F1.0
aF20.5
aI1149
aI318
aa(lp2400
F1.0
aF20.75
aI1220
aI177
aa(lp2401
F1.25
aF5.0
aI4
aI2271
aa(lp2402
F1.25
aF5.25
aI24
aI2251
aa(lp2403
F1.25
aF5.5
aI43
aI2230
aa(lp2404
F1.25
aF5.75
aI61
aI2209
aa(lp2405
F1.25
aF6.0
aI79
aI2188
aa(lp2406
F1.25
aF6.25
aI97
aI2167
aa(lp2407
F1.25
aF6.5
aI114
aI2146
aa(lp2408
F1.25
aF6.75
aI131
aI2124
aa(lp2409
F1.25
aF7.0
aI146
aI2103
aa(lp2410
F1.25
aF7.25
aI163
aI2081
aa(lp2411
F1.25
aF7.5
aI179
aI2059
aa(lp2412
F1.25
aF8.0
aI209
aI2015
aa(lp2413
F1.25
aF8.25
aI224
aI1993
aa(lp2414
F1.25
aF8.5
aI239
aI1971
aa(lp2415
F1.25
aF9.0
aI268
aI1926
aa(lp2416
F1.25
aF9.25
aI283
aI1903
aa(lp2417
F1.25
aF10.0
aI326
aI1834
aa(lp2418
F1.25
aF10.25
aI340
aI1811
aa(lp2419
F1.25
aF10.5
aI355
aI1787
aa(lp2420
F1.25
aF10.75
aI369
aI1763
aa(lp2421
F1.25
aF11.0
aI383
aI1739
aa(lp2422
F1.25
aF11.75
aI426
aI1666
aa(lp2423
F1.25
aF12.0
aI440
aI1641
aa(lp2424
F1.25
aF13.25
aI513
aI1512
aa(lp2425
F1.25
aF13.5
aI528
aI1485
aa(lp2426
F1.25
aF13.75
aI543
aI1458
aa(lp2427
F1.25
aF14.0
aI558
aI1431
aa(lp2428
F1.25
aF14.25
aI573
aI1403
aa(lp2429
F1.25
aF14.5
aI589
aI1374
aa(lp2430
F1.25
aF14.75
aI605
aI1345
aa(lp2431
F1.25
aF15.25
aI637
aI1286
aa(lp2432
F1.25
aF15.5
aI653
aI1256
aa(lp2433
F1.25
aF16.25
aI704
aI1160
aa(lp2434
F1.25
aF16.5
aI721
aI1128
aa(lp2435
F1.25
aF16.75
aI739
aI1094
aa(lp2436
F1.25
aF17.0
aI758
aI1058
aa(lp2437
F1.25
aF17.25
aI777
aI1022
aa(lp2438
F1.25
aF17.5
aI796
aI985
aa(lp2439
F1.25
aF17.75
aI816
aI947
aa(lp2440
F1.25
aF18.0
aI837
aI907
aa(lp2441
F1.25
aF18.5
aI881
aI822
aa(lp2442
F1.25
aF18.75
aI905
aI776
aa(lp2443
F1.25
aF19.0
aI930
aI727
aa(lp2444
F1.25
aF19.5
aI985
aI620
aa(lp2445
F1.25
aF19.75
aI1016
aI559
aa(lp2446
F1.25
aF20.0
aI1051
aI491
aa(lp2447
F1.25
aF20.25
aI1092
aI410
aa(lp2448
F1.25
aF20.5
aI1141
aI313
aa(lp2449
F1.25
aF20.75
aI1219
aI159
aa(lp2450
F1.5
aF5.5
aI9
aI2225
aa(lp2451
F1.5
aF5.75
aI28
aI2204
aa(lp2452
F1.5
aF6.0
aI48
aI2183
aa(lp2453
F1.5
aF6.25
aI66
aI2162
aa(lp2454
F1.5
aF6.5
aI84
aI2141
aa(lp2455
F1.5
aF6.75
aI102
aI2120
aa(lp2456
F1.5
aF7.25
aI136
aI2077
aa(lp2457
F1.5
aF7.5
aI153
aI2055
aa(lp2458
F1.5
aF7.75
aI169
aI2034
aa(lp2459
F1.5
aF8.0
aI185
aI2012
aa(lp2460
F1.5
aF8.25
aI200
aI1990
aa(lp2461
F1.5
aF8.5
aI216
aI1967
aa(lp2462
F1.5
aF8.75
aI232
aI1945
aa(lp2463
F1.5
aF9.25
aI262
aI1900
aa(lp2464
F1.5
aF9.5
aI277
aI1877
aa(lp2465
F1.5
aF9.75
aI292
aI1854
aa(lp2466
F1.5
aF10.25
aI321
aI1808
aa(lp2467
F1.5
aF10.5
aI336
aI1784
aa(lp2468
F1.5
aF10.75
aI351
aI1760
aa(lp2469
F1.5
aF11.25
aI380
aI1712
aa(lp2470
F1.5
aF12.0
aI424
aI1638
aa(lp2471
F1.5
aF12.25
aI439
aI1613
aa(lp2472
F1.5
aF12.5
aI453
aI1588
aa(lp2473
F1.5
aF12.75
aI468
aI1562
aa(lp2474
F1.5
aF13.0
aI483
aI1536
aa(lp2475
F1.5
aF13.75
aI529
aI1455
aa(lp2476
F1.5
aF14.0
aI544
aI1428
aa(lp2477
F1.5
aF14.25
aI560
aI1400
aa(lp2478
F1.5
aF15.0
aI608
aI1313
aa(lp2479
F1.5
aF15.25
aI624
aI1283
aa(lp2480
F1.5
aF16.25
aI692
aI1158
aa(lp2481
F1.5
aF16.5
aI710
aI1124
aa(lp2482
F1.5
aF17.0
aI747
aI1055
aa(lp2483
F1.5
aF17.25
aI766
aI1019
aa(lp2484
F1.5
aF17.75
aI806
aI943
aa(lp2485
F1.5
aF18.0
aI827
aI903
aa(lp2486
F1.5
aF18.25
aI849
aI861
aa(lp2487
F1.5
aF18.5
aI872
aI817
aa(lp2488
F1.5
aF18.75
aI896
aI771
aa(lp2489
F1.5
aF19.0
aI921
aI723
aa(lp2490
F1.5
aF19.25
aI947
aI672
aa(lp2491
F1.5
aF19.5
aI976
aI616
aa(lp2492
F1.5
aF19.75
aI1008
aI554
aa(lp2493
F1.5
aF20.0
aI1043
aI485
aa(lp2494
F1.5
aF20.25
aI1084
aI405
aa(lp2495
F1.5
aF20.75
aI1213
aI150
aa(lp2496
F1.75
aF6.25
aI37
aI2157
aa(lp2497
F1.75
aF6.5
aI56
aI2136
aa(lp2498
F1.75
aF6.75
aI74
aI2115
aa(lp2499
F1.75
aF7.25
aI110
aI2072
aa(lp2500
F1.75
aF7.5
aI127
aI2051
aa(lp2501
F1.75
aF7.75
aI145
aI2029
aa(lp2502
F1.75
aF8.0
aI161
aI2007
aa(lp2503
F1.75
aF8.25
aI178
aI1985
aa(lp2504
F1.75
aF8.5
aI194
aI1963
aa(lp2505
F1.75
aF8.75
aI210
aI1941
aa(lp2506
F1.75
aF9.25
aI241
aI1896
aa(lp2507
F1.75
aF9.5
aI257
aI1873
aa(lp2508
F1.75
aF9.75
aI272
aI1850
aa(lp2509
F1.75
aF10.0
aI288
aI1827
aa(lp2510
F1.75
aF10.25
aI303
aI1804
aa(lp2511
F1.75
aF10.5
aI318
aI1780
aa(lp2512
F1.75
aF10.75
aI333
aI1757
aa(lp2513
F1.75
aF11.0
aI348
aI1733
aa(lp2514
F1.75
aF11.25
aI363
aI1709
aa(lp2515
F1.75
aF11.5
aI378
aI1684
aa(lp2516
F1.75
aF11.75
aI393
aI1660
aa(lp2517
F1.75
aF12.0
aI408
aI1635
aa(lp2518
F1.75
aF12.25
aI423
aI1610
aa(lp2519
F1.75
aF13.0
aI469
aI1532
aa(lp2520
F1.75
aF13.25
aI484
aI1506
aa(lp2521
F1.75
aF13.5
aI500
aI1479
aa(lp2522
F1.75
aF13.75
aI515
aI1452
aa(lp2523
F1.75
aF14.5
aI563
aI1368
aa(lp2524
F1.75
aF15.0
aI595
aI1310
aa(lp2525
F1.75
aF15.25
aI612
aI1280
aa(lp2526
F1.75
aF16.0
aI663
aI1187
aa(lp2527
F1.75
aF16.25
aI681
aI1154
aa(lp2528
F1.75
aF16.75
aI717
aI1087
aa(lp2529
F1.75
aF17.0
aI736
aI1052
aa(lp2530
F1.75
aF17.25
aI755
aI1016
aa(lp2531
F1.75
aF17.5
aI775
aI979
aa(lp2532
F1.75
aF17.75
aI796
aI939
aa(lp2533
F1.75
aF18.0
aI817
aI899
aa(lp2534
F1.75
aF18.25
aI839
aI858
aa(lp2535
F1.75
aF18.5
aI862
aI814
aa(lp2536
F1.75
aF18.75
aI886
aI768
aa(lp2537
F1.75
aF19.0
aI912
aI718
aa(lp2538
F1.75
aF19.25
aI939
aI666
aa(lp2539
F1.75
aF19.5
aI968
aI610
aa(lp2540
F1.75
aF19.75
aI1000
aI548
aa(lp2541
F1.75
aF20.0
aI1036
aI478
aa(lp2542
F1.75
aF20.25
aI1077
aI398
aa(lp2543
F1.75
aF20.5
aI1129
aI296
aa(lp2544
F1.75
aF20.75
aI1212
aI131
aa(lp2545
F2.0
aF6.5
aI28
aI2130
aa(lp2546
F2.0
aF6.75
aI48
aI2109
aa(lp2547
F2.0
aF7.0
aI67
aI2088
aa(lp2548
F2.0
aF7.25
aI85
aI2067
aa(lp2549
F2.0
aF7.5
aI104
aI2045
aa(lp2550
F2.0
aF7.75
aI121
aI2024
aa(lp2551
F2.0
aF8.0
aI138
aI2002
aa(lp2552
F2.0
aF8.25
aI156
aI1980
aa(lp2553
F2.0
aF8.5
aI172
aI1958
aa(lp2554
F2.0
aF8.75
aI189
aI1936
aa(lp2555
F2.0
aF9.0
aI205
aI1914
aa(lp2556
F2.0
aF9.5
aI237
aI1869
aa(lp2557
F2.0
aF9.75
aI253
aI1846
aa(lp2558
F2.0
aF10.0
aI269
aI1823
aa(lp2559
F2.0
aF10.25
aI284
aI1800
aa(lp2560
F2.0
aF10.5
aI300
aI1776
aa(lp2561
F2.0
aF10.75
aI315
aI1753
aa(lp2562
F2.0
aF11.0
aI331
aI1729
aa(lp2563
F2.0
aF11.25
aI346
aI1705
aa(lp2564
F2.0
aF11.5
aI362
aI1680
aa(lp2565
F2.0
aF11.75
aI377
aI1656
aa(lp2566
F2.0
aF12.25
aI408
aI1606
aa(lp2567
F2.0
aF12.5
aI424
aI1580
aa(lp2568
F2.0
aF12.75
aI439
aI1555
aa(lp2569
F2.0
aF13.0
aI454
aI1529
aa(lp2570
F2.0
aF13.25
aI470
aI1502
aa(lp2571
F2.0
aF13.5
aI486
aI1475
aa(lp2572
F2.0
aF13.75
aI502
aI1448
aa(lp2573
F2.0
aF14.75
aI566
aI1336
aa(lp2574
F2.0
aF15.0
aI583
aI1306
aa(lp2575
F2.0
aF15.5
aI617
aI1246
aa(lp2576
F2.0
aF15.75
aI634
aI1215
aa(lp2577
F2.0
aF16.25
aI669
aI1151
aa(lp2578
F2.0
aF16.5
aI688
aI1117
aa(lp2579
F2.0
aF16.75
aI706
aI1084
aa(lp2580
F2.0
aF17.25
aI745
aI1012
aa(lp2581
F2.0
aF17.5
aI765
aI974
aa(lp2582
F2.0
aF17.75
aI786
aI935
aa(lp2583
F2.0
aF18.0
aI807
aI896
aa(lp2584
F2.0
aF18.25
aI829
aI854
aa(lp2585
F2.0
aF18.5
aI853
aI809
aa(lp2586
F2.0
aF18.75
aI877
aI763
aa(lp2587
F2.0
aF19.0
aI903
aI714
aa(lp2588
F2.0
aF19.25
aI930
aI662
aa(lp2589
F2.0
aF19.5
aI960
aI604
aa(lp2590
F2.0
aF20.0
aI1028
aI473
aa(lp2591
F2.0
aF20.25
aI1071
aI389
aa(lp2592
F2.0
aF20.5
aI1124
aI285
aa(lp2593
F2.0
aF20.75
aI1215
aI105
aa(lp2594
F2.25
aF6.5
aI2
aI2123
aa(lp2595
F2.25
aF6.75
aI22
aI2102
aa(lp2596
F2.25
aF7.0
aI42
aI2081
aa(lp2597
F2.25
aF7.25
aI61
aI2060
aa(lp2598
F2.25
aF7.5
aI80
aI2039
aa(lp2599
F2.25
aF7.75
aI98
aI2018
aa(lp2600
F2.25
aF8.0
aI116
aI1996
aa(lp2601
F2.25
aF8.25
aI134
aI1975
aa(lp2602
F2.25
aF8.5
aI151
aI1953
aa(lp2603
F2.25
aF8.75
aI168
aI1931
aa(lp2604
F2.25
aF9.0
aI185
aI1909
aa(lp2605
F2.25
aF9.25
aI202
aI1886
aa(lp2606
F2.25
aF9.5
aI218
aI1864
aa(lp2607
F2.25
aF9.75
aI235
aI1841
aa(lp2608
F2.25
aF10.0
aI251
aI1818
aa(lp2609
F2.25
aF10.25
aI267
aI1795
aa(lp2610
F2.25
aF10.5
aI283
aI1771
aa(lp2611
F2.25
aF10.75
aI299
aI1748
aa(lp2612
F2.25
aF11.0
aI315
aI1724
aa(lp2613
F2.25
aF11.25
aI330
aI1700
aa(lp2614
F2.25
aF11.5
aI346
aI1676
aa(lp2615
F2.25
aF11.75
aI362
aI1651
aa(lp2616
F2.25
aF12.5
aI409
aI1576
aa(lp2617
F2.25
aF12.75
aI425
aI1550
aa(lp2618
F2.25
aF13.0
aI441
aI1524
aa(lp2619
F2.25
aF14.25
aI521
aI1389
aa(lp2620
F2.25
aF14.5
aI537
aI1361
aa(lp2621
F2.25
aF14.75
aI554
aI1332
aa(lp2622
F2.25
aF15.0
aI571
aI1302
aa(lp2623
F2.25
aF15.25
aI588
aI1272
aa(lp2624
F2.25
aF15.5
aI605
aI1242
aa(lp2625
F2.25
aF16.25
aI658
aI1147
aa(lp2626
F2.25
aF16.5
aI677
aI1113
aa(lp2627
F2.25
aF17.0
aI715
aI1044
aa(lp2628
F2.25
aF17.25
aI735
aI1007
aa(lp2629
F2.25
aF17.5
aI755
aI970
aa(lp2630
F2.25
aF17.75
aI776
aI931
aa(lp2631
F2.25
aF18.0
aI798
aI890
aa(lp2632
F2.25
aF18.25
aI820
aI849
aa(lp2633
F2.25
aF18.5
aI844
aI804
aa(lp2634
F2.25
aF18.75
aI869
aI757
aa(lp2635
F2.25
aF19.0
aI894
aI709
aa(lp2636
F2.25
aF19.25
aI922
aI656
aa(lp2637
F2.25
aF19.5
aI953
aI597
aa(lp2638
F2.25
aF19.75
aI985
aI535
aa(lp2639
F2.25
aF20.25
aI1065
aI380
aa(lp2640
F2.25
aF20.5
aI1120
aI272
aa(lp2641
F2.25
aF20.75
aI1227
aI60
aa(lp2642
F2.5
aF7.0
aI18
aI2074
aa(lp2643
F2.5
aF7.25
aI38
aI2054
aa(lp2644
F2.5
aF7.5
aI57
aI2033
aa(lp2645
F2.5
aF7.75
aI76
aI2011
aa(lp2646
F2.5
aF8.0
aI95
aI1990
aa(lp2647
F2.5
aF8.25
aI113
aI1968
aa(lp2648
F2.5
aF8.5
aI131
aI1947
aa(lp2649
F2.5
aF8.75
aI148
aI1925
aa(lp2650
F2.5
aF9.0
aI166
aI1903
aa(lp2651
F2.5
aF9.25
aI183
aI1880
aa(lp2652
F2.5
aF9.5
aI200
aI1858
aa(lp2653
F2.5
aF9.75
aI217
aI1835
aa(lp2654
F2.5
aF10.0
aI233
aI1813
aa(lp2655
F2.5
aF10.5
aI266
aI1766
aa(lp2656
F2.5
aF10.75
aI282
aI1743
aa(lp2657
F2.5
aF11.75
aI347
aI1646
aa(lp2658
F2.5
aF12.5
aI395
aI1571
aa(lp2659
F2.5
aF12.75
aI411
aI1545
aa(lp2660
F2.5
aF13.0
aI427
aI1519
aa(lp2661
F2.5
aF13.25
aI443
aI1493
aa(lp2662
F2.5
aF13.5
aI459
aI1467
aa(lp2663
F2.5
aF14.0
aI492
aI1412
aa(lp2664
F2.5
aF14.25
aI509
aI1384
aa(lp2665
F2.5
aF14.5
aI525
aI1356
aa(lp2666
F2.5
aF14.75
aI542
aI1327
aa(lp2667
F2.5
aF15.0
aI559
aI1298
aa(lp2668
F2.5
aF15.5
aI594
aI1237
aa(lp2669
F2.5
aF16.0
aI630
aI1174
aa(lp2670
F2.5
aF16.25
aI648
aI1142
aa(lp2671
F2.5
aF16.5
aI667
aI1108
aa(lp2672
F2.5
aF17.0
aI705
aI1039
aa(lp2673
F2.5
aF17.25
aI725
aI1003
aa(lp2674
F2.5
aF17.5
aI746
aI964
aa(lp2675
F2.5
aF18.0
aI789
aI885
aa(lp2676
F2.5
aF18.25
aI812
aI842
aa(lp2677
F2.5
aF18.5
aI835
aI799
aa(lp2678
F2.5
aF18.75
aI860
aI752
aa(lp2679
F2.5
aF19.0
aI887
aI701
aa(lp2680
F2.5
aF19.25
aI915
aI648
aa(lp2681
F2.5
aF19.5
aI945
aI591
aa(lp2682
F2.5
aF19.75
aI979
aI526
aa(lp2683
F2.5
aF20.0
aI1016
aI454
aa(lp2684
F2.5
aF20.25
aI1060
aI369
aa(lp2685
F2.5
aF20.5
aI1118
aI255
aa(lp2686
F2.75
aF7.25
aI15
aI2046
aa(lp2687
F2.75
aF7.5
aI35
aI2025
aa(lp2688
F2.75
aF7.75
aI55
aI2004
aa(lp2689
F2.75
aF8.0
aI74
aI1983
aa(lp2690
F2.75
aF8.5
aI111
aI1940
aa(lp2691
F2.75
aF8.75
aI129
aI1918
aa(lp2692
F2.75
aF9.0
aI147
aI1896
aa(lp2693
F2.75
aF9.25
aI165
aI1874
aa(lp2694
F2.75
aF9.5
aI182
aI1852
aa(lp2695
F2.75
aF9.75
aI199
aI1829
aa(lp2696
F2.75
aF10.0
aI216
aI1807
aa(lp2697
F2.75
aF10.25
aI233
aI1783
aa(lp2698
F2.75
aF10.5
aI250
aI1760
aa(lp2699
F2.75
aF10.75
aI266
aI1737
aa(lp2700
F2.75
aF11.0
aI283
aI1713
aa(lp2701
F2.75
aF11.5
aI316
aI1665
aa(lp2702
F2.75
aF11.75
aI332
aI1641
aa(lp2703
F2.75
aF12.25
aI365
aI1591
aa(lp2704
F2.75
aF12.5
aI381
aI1566
aa(lp2705
F2.75
aF13.0
aI414
aI1514
aa(lp2706
F2.75
aF13.25
aI430
aI1488
aa(lp2707
F2.75
aF13.5
aI447
aI1461
aa(lp2708
F2.75
aF14.0
aI480
aI1407
aa(lp2709
F2.75
aF15.0
aI548
aI1292
aa(lp2710
F2.75
aF15.25
aI565
aI1263
aa(lp2711
F2.75
aF15.5
aI583
aI1232
aa(lp2712
F2.75
aF15.75
aI601
aI1201
aa(lp2713
F2.75
aF16.0
aI619
aI1169
aa(lp2714
F2.75
aF16.25
aI638
aI1136
aa(lp2715
F2.75
aF16.75
aI676
aI1068
aa(lp2716
F2.75
aF17.25
aI716
aI996
aa(lp2717
F2.75
aF17.75
aI758
aI920
aa(lp2718
F2.75
aF18.0
aI780
aI879
aa(lp2719
F2.75
aF18.25
aI803
aI837
aa(lp2720
F2.75
aF18.5
aI827
aI792
aa(lp2721
F2.75
aF18.75
aI853
aI744
aa(lp2722
F2.75
aF19.0
aI879
aI695
aa(lp2723
F2.75
aF19.25
aI908
aI640
aa(lp2724
F2.75
aF19.5
aI938
aI583
aa(lp2725
F2.75
aF19.75
aI972
aI518
aa(lp2726
F2.75
aF20.0
aI1010
aI445
aa(lp2727
F2.75
aF20.25
aI1056
aI356
aa(lp2728
F2.75
aF20.5
aI1116
aI239
aa(lp2729
F3.0
aF7.5
aI15
aI2017
aa(lp2730
F3.0
aF8.0
aI54
aI1975
aa(lp2731
F3.0
aF8.25
aI73
aI1954
aa(lp2732
F3.0
aF8.5
aI92
aI1933
aa(lp2733
F3.0
aF8.75
aI111
aI1911
aa(lp2734
F3.0
aF9.0
aI129
aI1889
aa(lp2735
F3.0
aF9.25
aI147
aI1867
aa(lp2736
F3.0
aF9.5
aI165
aI1845
aa(lp2737
F3.0
aF9.75
aI182
aI1823
aa(lp2738
F3.0
aF10.25
aI217
aI1777
aa(lp2739
F3.0
aF10.5
aI234
aI1754
aa(lp2740
F3.0
aF11.0
aI268
aI1707
aa(lp2741
F3.0
aF11.5
aI301
aI1659
aa(lp2742
F3.0
aF12.25
aI351
aI1585
aa(lp2743
F3.0
aF12.75
aI384
aI1535
aa(lp2744
F3.0
aF13.0
aI401
aI1508
aa(lp2745
F3.0
aF13.25
aI418
aI1482
aa(lp2746
F3.0
aF13.5
aI434
aI1456
aa(lp2747
F3.0
aF13.75
aI451
aI1429
aa(lp2748
F3.0
aF14.0
aI468
aI1401
aa(lp2749
F3.0
aF14.25
aI485
aI1373
aa(lp2750
F3.0
aF14.5
aI502
aI1345
aa(lp2751
F3.0
aF15.0
aI537
aI1287
aa(lp2752
F3.0
aF15.75
aI591
aI1195
aa(lp2753
F3.0
aF16.0
aI609
aI1163
aa(lp2754
F3.0
aF16.25
aI628
aI1130
aa(lp2755
F3.0
aF16.5
aI647
aI1097
aa(lp2756
F3.0
aF16.75
aI666
aI1063
aa(lp2757
F3.0
aF17.25
aI707
aI990
aa(lp2758
F3.0
aF17.5
aI728
aI952
aa(lp2759
F3.0
aF18.0
aI772
aI872
aa(lp2760
F3.0
aF18.25
aI795
aI830
aa(lp2761
F3.0
aF18.5
aI820
aI784
aa(lp2762
F3.0
aF18.75
aI845
aI737
aa(lp2763
F3.0
aF19.0
aI872
aI687
aa(lp2764
F3.0
aF19.25
aI901
aI632
aa(lp2765
F3.0
aF19.5
aI932
aI574
aa(lp2766
F3.0
aF19.75
aI967
aI507
aa(lp2767
F3.0
aF20.0
aI1006
aI432
aa(lp2768
F3.0
aF20.25
aI1053
aI341
aa(lp2769
F3.0
aF20.5
aI1117
aI216
aa(lp2770
F3.25
aF7.75
aI15
aI1988
aa(lp2771
F3.25
aF8.0
aI35
aI1967
aa(lp2772
F3.25
aF8.25
aI55
aI1946
aa(lp2773
F3.25
aF8.5
aI74
aI1925
aa(lp2774
F3.25
aF8.75
aI93
aI1903
aa(lp2775
F3.25
aF9.0
aI111
aI1882
aa(lp2776
F3.25
aF9.25
aI130
aI1860
aa(lp2777
F3.25
aF9.5
aI148
aI1838
aa(lp2778
F3.25
aF9.75
aI166
aI1815
aa(lp2779
F3.25
aF10.0
aI183
aI1793
aa(lp2780
F3.25
aF10.25
aI201
aI1770
aa(lp2781
F3.25
aF10.75
aI236
aI1724
aa(lp2782
F3.25
aF11.0
aI253
aI1700
aa(lp2783
F3.25
aF11.25
aI270
aI1677
aa(lp2784
F3.25
aF11.5
aI287
aI1653
aa(lp2785
F3.25
aF11.75
aI304
aI1628
aa(lp2786
F3.25
aF12.5
aI354
aI1554
aa(lp2787
F3.25
aF13.25
aI405
aI1476
aa(lp2788
F3.25
aF13.5
aI422
aI1450
aa(lp2789
F3.25
aF13.75
aI439
aI1423
aa(lp2790
F3.25
aF14.25
aI474
aI1367
aa(lp2791
F3.25
aF14.5
aI491
aI1339
aa(lp2792
F3.25
aF15.0
aI526
aI1281
aa(lp2793
F3.25
aF15.25
aI544
aI1251
aa(lp2794
F3.25
aF16.0
aI599
aI1157
aa(lp2795
F3.25
aF16.5
aI638
aI1090
aa(lp2796
F3.25
aF17.0
aI677
aI1021
aa(lp2797
F3.25
aF17.25
aI698
aI984
aa(lp2798
F3.25
aF17.5
aI719
aI946
aa(lp2799
F3.25
aF17.75
aI741
aI907
aa(lp2800
F3.25
aF18.0
aI764
aI865
aa(lp2801
F3.25
aF18.5
aI812
aI777
aa(lp2802
F3.25
aF18.75
aI838
aI729
aa(lp2803
F3.25
aF19.0
aI865
aI679
aa(lp2804
F3.25
aF19.5
aI926
aI564
aa(lp2805
F3.25
aF19.75
aI962
aI496
aa(lp2806
F3.25
aF20.0
aI1002
aI419
aa(lp2807
F3.25
aF20.25
aI1050
aI326
aa(lp2808
F3.25
aF20.5
aI1120
aI190
aa(lp2809
F3.5
aF8.5
aI56
aI1916
aa(lp2810
F3.5
aF8.75
aI76
aI1895
aa(lp2811
F3.5
aF9.25
aI113
aI1852
aa(lp2812
F3.5
aF9.5
aI132
aI1830
aa(lp2813
F3.5
aF9.75
aI150
aI1808
aa(lp2814
F3.5
aF10.0
aI168
aI1785
aa(lp2815
F3.5
aF10.25
aI186
aI1762
aa(lp2816
F3.5
aF10.75
aI221
aI1717
aa(lp2817
F3.5
aF11.0
aI239
aI1693
aa(lp2818
F3.5
aF11.25
aI256
aI1670
aa(lp2819
F3.5
aF11.5
aI273
aI1646
aa(lp2820
F3.5
aF11.75
aI291
aI1621
aa(lp2821
F3.5
aF12.25
aI325
aI1572
aa(lp2822
F3.5
aF12.5
aI342
aI1547
aa(lp2823
F3.5
aF12.75
aI359
aI1521
aa(lp2824
F3.5
aF13.0
aI376
aI1496
aa(lp2825
F3.5
aF13.75
aI428
aI1416
aa(lp2826
F3.5
aF14.0
aI445
aI1389
aa(lp2827
F3.5
aF14.25
aI463
aI1360
aa(lp2828
F3.5
aF15.0
aI516
aI1274
aa(lp2829
F3.5
aF15.25
aI534
aI1244
aa(lp2830
F3.5
aF15.75
aI571
aI1182
aa(lp2831
F3.5
aF16.0
aI590
aI1150
aa(lp2832
F3.5
aF16.25
aI609
aI1117
aa(lp2833
F3.5
aF16.5
aI629
aI1083
aa(lp2834
F3.5
aF17.0
aI669
aI1013
aa(lp2835
F3.5
aF17.25
aI690
aI976
aa(lp2836
F3.5
aF17.5
aI711
aI939
aa(lp2837
F3.5
aF17.75
aI733
aI899
aa(lp2838
F3.5
aF18.0
aI756
aI858
aa(lp2839
F3.5
aF18.25
aI780
aI814
aa(lp2840
F3.5
aF18.5
aI805
aI769
aa(lp2841
F3.5
aF18.75
aI831
aI721
aa(lp2842
F3.5
aF19.0
aI859
aI669
aa(lp2843
F3.5
aF19.25
aI889
aI613
aa(lp2844
F3.5
aF19.5
aI921
aI553
aa(lp2845
F3.5
aF19.75
aI958
aI483
aa(lp2846
F3.5
aF20.0
aI998
aI406
aa(lp2847
F3.5
aF20.25
aI1049
aI308
aa(lp2848
F3.5
aF20.5
aI1126
aI157
aa(lp2849
F3.75
aF8.25
aI19
aI1928
aa(lp2850
F3.75
aF8.75
aI59
aI1886
aa(lp2851
F3.75
aF9.0
aI78
aI1865
aa(lp2852
F3.75
aF9.5
aI116
aI1822
aa(lp2853
F3.75
aF9.75
aI135
aI1799
aa(lp2854
F3.75
aF10.0
aI153
aI1777
aa(lp2855
F3.75
aF10.25
aI171
aI1755
aa(lp2856
F3.75
aF10.5
aI189
aI1732
aa(lp2857
F3.75
aF10.75
aI207
aI1709
aa(lp2858
F3.75
aF11.0
aI225
aI1685
aa(lp2859
F3.75
aF11.5
aI260
aI1638
aa(lp2860
F3.75
aF12.0
aI295
aI1589
aa(lp2861
F3.75
aF12.25
aI312
aI1565
aa(lp2862
F3.75
aF12.5
aI330
aI1539
aa(lp2863
F3.75
aF12.75
aI347
aI1514
aa(lp2864
F3.75
aF13.0
aI365
aI1488
aa(lp2865
F3.75
aF13.25
aI382
aI1462
aa(lp2866
F3.75
aF13.5
aI399
aI1436
aa(lp2867
F3.75
aF13.75
aI417
aI1408
aa(lp2868
F3.75
aF14.25
aI452
aI1354
aa(lp2869
F3.75
aF14.5
aI470
aI1325
aa(lp2870
F3.75
aF14.75
aI488
aI1296
aa(lp2871
F3.75
aF15.0
aI506
aI1267
aa(lp2872
F3.75
aF15.25
aI524
aI1237
aa(lp2873
F3.75
aF15.5
aI543
aI1206
aa(lp2874
F3.75
aF16.0
aI581
aI1142
aa(lp2875
F3.75
aF16.25
aI600
aI1110
aa(lp2876
F3.75
aF16.5
aI620
aI1076
aa(lp2877
F3.75
aF16.75
aI640
aI1041
aa(lp2878
F3.75
aF17.0
aI661
aI1005
aa(lp2879
F3.75
aF17.25
aI682
aI968
aa(lp2880
F3.75
aF17.75
aI726
aI890
aa(lp2881
F3.75
aF18.0
aI749
aI849
aa(lp2882
F3.75
aF18.25
aI773
aI806
aa(lp2883
F3.75
aF18.5
aI798
aI760
aa(lp2884
F3.75
aF18.75
aI825
aI711
aa(lp2885
F3.75
aF19.0
aI853
aI659
aa(lp2886
F3.75
aF19.25
aI883
aI603
aa(lp2887
F3.75
aF19.5
aI916
aI541
aa(lp2888
F3.75
aF20.0
aI996
aI389
aa(lp2889
F3.75
aF20.25
aI1050
aI285
aa(lp2890
F3.75
aF20.5
aI1139
aI111
aa(lp2891
F4.0
aF8.5
aI23
aI1898
aa(lp2892
F4.0
aF8.75
aI43
aI1877
aa(lp2893
F4.0
aF9.25
aI82
aI1834
aa(lp2894
F4.0
aF9.5
aI101
aI1813
aa(lp2895
F4.0
aF9.75
aI120
aI1791
aa(lp2896
F4.0
aF10.0
aI139
aI1768
aa(lp2897
F4.0
aF10.25
aI157
aI1746
aa(lp2898
F4.0
aF10.5
aI176
aI1723
aa(lp2899
F4.0
aF10.75
aI194
aI1700
aa(lp2900
F4.0
aF11.0
aI212
aI1677
aa(lp2901
F4.0
aF11.5
aI247
aI1630
aa(lp2902
F4.0
aF11.75
aI265
aI1606
aa(lp2903
F4.0
aF12.0
aI283
aI1581
aa(lp2904
F4.0
aF12.25
aI300
aI1557
aa(lp2905
F4.0
aF12.5
aI318
aI1532
aa(lp2906
F4.0
aF12.75
aI336
aI1506
aa(lp2907
F4.0
aF13.0
aI353
aI1481
aa(lp2908
F4.0
aF13.25
aI371
aI1454
aa(lp2909
F4.0
aF13.75
aI406
aI1401
aa(lp2910
F4.0
aF14.0
aI424
aI1374
aa(lp2911
F4.0
aF14.25
aI442
aI1346
aa(lp2912
F4.0
aF14.5
aI460
aI1317
aa(lp2913
F4.0
aF14.75
aI478
aI1289
aa(lp2914
F4.0
aF15.25
aI515
aI1229
aa(lp2915
F4.0
aF15.5
aI534
aI1198
aa(lp2916
F4.0
aF15.75
aI553
aI1167
aa(lp2917
F4.0
aF16.0
aI572
aI1135
aa(lp2918
F4.0
aF16.75
aI632
aI1033
aa(lp2919
F4.0
aF17.0
aI653
aI997
aa(lp2920
F4.0
aF17.25
aI674
aI960
aa(lp2921
F4.0
aF17.5
aI696
aI922
aa(lp2922
F4.0
aF17.75
aI719
aI881
aa(lp2923
F4.0
aF18.0
aI742
aI840
aa(lp2924
F4.0
aF18.25
aI767
aI795
aa(lp2925
F4.0
aF18.5
aI792
aI750
aa(lp2926
F4.0
aF18.75
aI819
aI701
aa(lp2927
F4.0
aF19.0
aI848
aI647
aa(lp2928
F4.0
aF19.25
aI879
aI590
aa(lp2929
F4.0
aF19.5
aI912
aI528
aa(lp2930
F4.0
aF20.0
aI994
aI373
aa(lp2931
F4.0
aF20.25
aI1051
aI263
aa(lp2932
F4.25
aF8.5
aI7
aI1888
aa(lp2933
F4.25
aF8.75
aI28
aI1867
aa(lp2934
F4.25
aF9.0
aI48
aI1846
aa(lp2935
F4.25
aF9.5
aI87
aI1803
aa(lp2936
F4.25
aF9.75
aI106
aI1781
aa(lp2937
F4.25
aF10.0
aI125
aI1759
aa(lp2938
F4.25
aF10.25
aI144
aI1737
aa(lp2939
F4.25
aF11.0
aI199
aI1668
aa(lp2940
F4.25
aF11.25
aI217
aI1645
aa(lp2941
F4.25
aF11.5
aI235
aI1621
aa(lp2942
F4.25
aF11.75
aI253
aI1597
aa(lp2943
F4.25
aF12.0
aI271
aI1573
aa(lp2944
F4.25
aF12.25
aI289
aI1548
aa(lp2945
F4.25
aF12.5
aI307
aI1523
aa(lp2946
F4.25
aF13.25
aI360
aI1446
aa(lp2947
F4.25
aF13.5
aI378
aI1420
aa(lp2948
F4.25
aF13.75
aI396
aI1393
aa(lp2949
F4.25
aF14.0
aI414
aI1365
aa(lp2950
F4.25
aF14.25
aI432
aI1338
aa(lp2951
F4.25
aF14.75
aI469
aI1280
aa(lp2952
F4.25
aF15.0
aI487
aI1251
aa(lp2953
F4.25
aF15.25
aI506
aI1221
aa(lp2954
F4.25
aF15.5
aI525
aI1190
aa(lp2955
F4.25
aF15.75
aI544
aI1159
aa(lp2956
F4.25
aF16.0
aI564
aI1126
aa(lp2957
F4.25
aF16.5
aI604
aI1059
aa(lp2958
F4.25
aF16.75
aI624
aI1025
aa(lp2959
F4.25
aF17.0
aI645
aI989
aa(lp2960
F4.25
aF17.25
aI667
aI951
aa(lp2961
F4.25
aF17.75
aI712
aI872
aa(lp2962
F4.25
aF18.25
aI761
aI785
aa(lp2963
F4.25
aF18.5
aI787
aI738
aa(lp2964
F4.25
aF18.75
aI814
aI689
aa(lp2965
F4.25
aF19.0
aI843
aI636
aa(lp2966
F4.25
aF19.25
aI874
aI578
aa(lp2967
F4.25
aF19.5
aI909
aI513
aa(lp2968
F4.25
aF19.75
aI948
aI440
aa(lp2969
F4.25
aF20.0
aI994
aI352
aa(lp2970
F4.25
aF20.25
aI1056
aI232
aa(lp2971
F4.5
aF9.5
aI73
aI1793
aa(lp2972
F4.5
aF10.25
aI131
aI1727
aa(lp2973
F4.5
aF10.75
aI168
aI1682
aa(lp2974
F4.5
aF11.0
aI187
aI1659
aa(lp2975
F4.5
aF11.25
aI205
aI1636
aa(lp2976
F4.5
aF11.75
aI242
aI1588
aa(lp2977
F4.5
aF12.0
aI260
aI1564
aa(lp2978
F4.5
aF12.25
aI278
aI1539
aa(lp2979
F4.5
aF12.5
aI296
aI1514
aa(lp2980
F4.5
aF12.75
aI314
aI1489
aa(lp2981
F4.5
aF13.0
aI332
aI1463
aa(lp2982
F4.5
aF13.25
aI350
aI1437
aa(lp2983
F4.5
aF13.5
aI368
aI1411
aa(lp2984
F4.5
aF13.75
aI386
aI1384
aa(lp2985
F4.5
aF14.0
aI404
aI1357
aa(lp2986
F4.5
aF14.5
aI441
aI1301
aa(lp2987
F4.5
aF15.75
aI536
aI1150
aa(lp2988
F4.5
aF16.0
aI556
aI1117
aa(lp2989
F4.5
aF16.25
aI576
aI1084
aa(lp2990
F4.5
aF16.5
aI596
aI1050
aa(lp2991
F4.5
aF16.75
aI617
aI1015
aa(lp2992
F4.5
aF17.0
aI638
aI979
aa(lp2993
F4.5
aF17.25
aI660
aI941
aa(lp2994
F4.5
aF17.75
aI706
aI861
aa(lp2995
F4.5
aF18.0
aI730
aI819
aa(lp2996
F4.5
aF18.5
aI781
aI728
aa(lp2997
F4.5
aF18.75
aI809
aI677
aa(lp2998
F4.5
aF19.0
aI839
aI622
aa(lp2999
F4.5
aF19.25
aI871
aI563
aa(lp3000
F4.5
aF19.5
aI906
aI498
aa(lp3001
F4.5
aF19.75
aI946
aI423
aa(lp3002
F4.5
aF20.0
aI996
aI328
aa(lp3003
F4.5
aF20.25
aI1063
aI198
aa(lp3004
F4.75
aF9.0
aI20
aI1825
aa(lp3005
F4.75
aF9.25
aI40
aI1804
aa(lp3006
F4.75
aF9.5
aI60
aI1783
aa(lp3007
F4.75
aF9.75
aI80
aI1761
aa(lp3008
F4.75
aF10.0
aI99
aI1740
aa(lp3009
F4.75
aF10.5
aI137
aI1695
aa(lp3010
F4.75
aF11.0
aI175
aI1649
aa(lp3011
F4.75
aF11.25
aI194
aI1626
aa(lp3012
F4.75
aF11.5
aI212
aI1603
aa(lp3013
F4.75
aF11.75
aI230
aI1579
aa(lp3014
F4.75
aF12.25
aI267
aI1530
aa(lp3015
F4.75
aF13.0
aI322
aI1454
aa(lp3016
F4.75
aF13.25
aI340
aI1428
aa(lp3017
F4.75
aF13.5
aI358
aI1402
aa(lp3018
F4.75
aF14.0
aI395
aI1348
aa(lp3019
F4.75
aF14.5
aI432
aI1292
aa(lp3020
F4.75
aF15.0
aI470
aI1233
aa(lp3021
F4.75
aF15.25
aI489
aI1203
aa(lp3022
F4.75
aF16.0
aI548
aI1108
aa(lp3023
F4.75
aF16.25
aI568
aI1075
aa(lp3024
F4.75
aF16.5
aI589
aI1040
aa(lp3025
F4.75
aF16.75
aI610
aI1005
aa(lp3026
F4.75
aF17.5
aI676
aI892
aa(lp3027
F4.75
aF18.25
aI750
aI762
aa(lp3028
F4.75
aF18.5
aI777
aI714
aa(lp3029
F4.75
aF19.0
aI835
aI609
aa(lp3030
F4.75
aF19.25
aI868
aI548
aa(lp3031
F4.75
aF19.5
aI904
aI481
aa(lp3032
F4.75
aF19.75
aI946
aI402
aa(lp3033
F4.75
aF20.0
aI997
aI305
aa(lp3034
F4.75
aF20.25
aI1075
aI154
aa(lp3035
F5.0
aF9.0
aI7
aI1814
aa(lp3036
F5.0
aF9.25
aI28
aI1793
aa(lp3037
F5.0
aF10.0
aI87
aI1729
aa(lp3038
F5.0
aF10.25
aI106
aI1707
aa(lp3039
F5.0
aF10.75
aI145
aI1662
aa(lp3040
F5.0
aF11.0
aI164
aI1639
aa(lp3041
F5.0
aF11.5
aI201
aI1593
aa(lp3042
F5.0
aF11.75
aI220
aI1569
aa(lp3043
F5.0
aF12.0
aI238
aI1545
aa(lp3044
F5.0
aF12.25
aI257
aI1520
aa(lp3045
F5.0
aF12.5
aI275
aI1496
aa(lp3046
F5.0
aF12.75
aI294
aI1470
aa(lp3047
F5.0
aF13.0
aI312
aI1445
aa(lp3048
F5.0
aF13.5
aI349
aI1392
aa(lp3049
F5.0
aF14.0
aI386
aI1338
aa(lp3050
F5.0
aF14.25
aI405
aI1310
aa(lp3051
F5.0
aF15.0
aI462
aI1223
aa(lp3052
F5.0
aF15.25
aI481
aI1193
aa(lp3053
F5.0
aF15.5
aI501
aI1162
aa(lp3054
F5.0
aF15.75
aI521
aI1130
aa(lp3055
F5.0
aF16.25
aI561
aI1065
aa(lp3056
F5.0
aF16.5
aI582
aI1030
aa(lp3057
F5.0
aF16.75
aI603
aI995
aa(lp3058
F5.0
aF17.0
aI625
aI958
aa(lp3059
F5.0
aF17.5
aI671
aI880
aa(lp3060
F5.0
aF17.75
aI694
aI840
aa(lp3061
F5.0
aF18.0
aI719
aI796
aa(lp3062
F5.0
aF18.25
aI745
aI750
aa(lp3063
F5.0
aF18.5
aI772
aI702
aa(lp3064
F5.0
aF18.75
aI801
aI650
aa(lp3065
F5.0
aF19.0
aI832
aI594
aa(lp3066
F5.0
aF19.25
aI865
aI533
aa(lp3067
F5.0
aF19.5
aI904
aI461
aa(lp3068
F5.0
aF19.75
aI947
aI380
aa(lp3069
F5.0
aF20.0
aI1002
aI275
aa(lp3070
F5.0
aF20.25
aI1099
aI86
aa(lp3071
F5.25
aF9.25
aI16
aI1781
aa(lp3072
F5.25
aF9.5
aI36
aI1760
aa(lp3073
F5.25
aF9.75
aI56
aI1739
aa(lp3074
F5.25
aF10.25
aI95
aI1696
aa(lp3075
F5.25
aF10.75
aI134
aI1651
aa(lp3076
F5.25
aF11.0
aI153
aI1629
aa(lp3077
F5.25
aF11.5
aI191
aI1582
aa(lp3078
F5.25
aF12.25
aI247
aI1510
aa(lp3079
F5.25
aF12.5
aI266
aI1485
aa(lp3080
F5.25
aF12.75
aI284
aI1460
aa(lp3081
F5.25
aF13.0
aI303
aI1434
aa(lp3082
F5.25
aF13.25
aI321
aI1409
aa(lp3083
F5.25
aF13.5
aI340
aI1382
aa(lp3084
F5.25
aF13.75
aI359
aI1355
aa(lp3085
F5.25
aF14.75
aI435
aI1242
aa(lp3086
F5.25
aF15.0
aI454
aI1213
aa(lp3087
F5.25
aF16.0
aI534
aI1087
aa(lp3088
F5.25
aF16.5
aI576
aI1019
aa(lp3089
F5.25
aF16.75
aI597
aI984
aa(lp3090
F5.25
aF17.0
aI619
aI947
aa(lp3091
F5.25
aF17.25
aI642
aI908
aa(lp3092
F5.25
aF17.5
aI665
aI869
aa(lp3093
F5.25
aF18.0
aI714
aI784
aa(lp3094
F5.25
aF18.5
aI768
aI689
aa(lp3095
F5.25
aF18.75
aI798
aI635
aa(lp3096
F5.25
aF19.0
aI830
aI577
aa(lp3097
F5.25
aF19.25
aI864
aI514
aa(lp3098
F5.25
aF19.5
aI903
aI442
aa(lp3099
F5.25
aF19.75
aI949
aI355
aa(lp3100
F5.25
aF20.0
aI1008
aI243
aa(lp3101
F5.5
aF9.5
aI25
aI1748
aa(lp3102
F5.5
aF9.75
aI45
aI1727
aa(lp3103
F5.5
aF10.0
aI65
aI1706
aa(lp3104
F5.5
aF10.25
aI85
aI1684
aa(lp3105
F5.5
aF11.0
aI143
aI1617
aa(lp3106
F5.5
aF11.25
aI162
aI1594
aa(lp3107
F5.5
aF11.5
aI181
aI1571
aa(lp3108
F5.5
aF12.0
aI219
aI1523
aa(lp3109
F5.5
aF12.25
aI238
aI1499
aa(lp3110
F5.5
aF12.75
aI275
aI1450
aa(lp3111
F5.5
aF13.0
aI294
aI1424
aa(lp3112
F5.5
aF13.25
aI313
aI1398
aa(lp3113
F5.5
aF14.0
aI370
aI1317
aa(lp3114
F5.5
aF14.25
aI389
aI1289
aa(lp3115
F5.5
aF14.5
aI408
aI1261
aa(lp3116
F5.5
aF14.75
aI427
aI1232
aa(lp3117
F5.5
aF15.0
aI447
aI1202
aa(lp3118
F5.5
aF15.75
aI507
aI1109
aa(lp3119
F5.5
aF16.0
aI527
aI1077
aa(lp3120
F5.5
aF16.25
aI548
aI1043
aa(lp3121
F5.5
aF17.0
aI614
aI934
aa(lp3122
F5.5
aF17.25
aI637
aI896
aa(lp3123
F5.5
aF18.0
aI710
aI770
aa(lp3124
F5.5
aF18.25
aI737
aI723
aa(lp3125
F5.5
aF18.5
aI765
aI673
aa(lp3126
F5.5
aF19.0
aI828
aI560
aa(lp3127
F5.5
aF19.25
aI864
aI494
aa(lp3128
F5.5
aF19.75
aI952
aI329
aa(lp3129
F5.5
aF20.0
aI1019
aI201
aa(lp3130
F5.75
aF9.5
aI14
aI1736
aa(lp3131
F5.75
aF9.75
aI35
aI1715
aa(lp3132
F5.75
aF10.5
aI94
aI1651
aa(lp3133
F5.75
aF10.75
aI114
aI1628
aa(lp3134
F5.75
aF11.0
aI133
aI1606
aa(lp3135
F5.75
aF11.75
aI191
aI1536
aa(lp3136
F5.75
aF12.0
aI210
aI1512
aa(lp3137
F5.75
aF12.25
aI229
aI1488
aa(lp3138
F5.75
aF12.5
aI248
aI1463
aa(lp3139
F5.75
aF12.75
aI267
aI1438
aa(lp3140
F5.75
aF13.5
aI324
aI1360
aa(lp3141
F5.75
aF13.75
aI343
aI1333
aa(lp3142
F5.75
aF14.0
aI362
aI1306
aa(lp3143
F5.75
aF14.25
aI381
aI1279
aa(lp3144
F5.75
aF14.75
aI420
aI1221
aa(lp3145
F5.75
aF15.0
aI440
aI1191
aa(lp3146
F5.75
aF15.25
aI460
aI1160
aa(lp3147
F5.75
aF15.5
aI480
aI1129
aa(lp3148
F5.75
aF15.75
aI500
aI1098
aa(lp3149
F5.75
aF16.0
aI521
aI1065
aa(lp3150
F5.75
aF16.25
aI542
aI1031
aa(lp3151
F5.75
aF16.5
aI564
aI996
aa(lp3152
F5.75
aF16.75
aI586
aI960
aa(lp3153
F5.75
aF17.25
aI632
aI883
aa(lp3154
F5.75
aF17.5
aI656
aI842
aa(lp3155
F5.75
aF17.75
aI681
aI800
aa(lp3156
F5.75
aF18.0
aI706
aI756
aa(lp3157
F5.75
aF18.5
aI762
aI658
aa(lp3158
F5.75
aF19.0
aI826
aI543
aa(lp3159
F5.75
aF19.25
aI863
aI475
aa(lp3160
F5.75
aF19.5
aI905
aI397
aa(lp3161
F5.75
aF19.75
aI958
aI297
aa(lp3162
F5.75
aF20.0
aI1037
aI145
aa(lp3163
F6.0
aF10.0
aI45
aI1681
aa(lp3164
F6.0
aF10.25
aI65
aI1660
aa(lp3165
F6.0
aF10.5
aI85
aI1638
aa(lp3166
F6.0
aF11.0
aI124
aI1594
aa(lp3167
F6.0
aF11.5
aI163
aI1548
aa(lp3168
F6.0
aF11.75
aI182
aI1524
aa(lp3169
F6.0
aF12.0
aI201
aI1501
aa(lp3170
F6.0
aF13.0
aI278
aI1401
aa(lp3171
F6.0
aF13.25
aI297
aI1375
aa(lp3172
F6.0
aF13.5
aI316
aI1349
aa(lp3173
F6.0
aF14.25
aI374
aI1267
aa(lp3174
F6.0
aF14.5
aI394
aI1238
aa(lp3175
F6.0
aF15.0
aI433
aI1180
aa(lp3176
F6.0
aF15.5
aI474
aI1117
aa(lp3177
F6.0
aF15.75
aI495
aI1085
aa(lp3178
F6.0
aF16.25
aI537
aI1018
aa(lp3179
F6.0
aF16.5
aI559
aI983
aa(lp3180
F6.0
aF16.75
aI581
aI947
aa(lp3181
F6.0
aF17.0
aI604
aI909
aa(lp3182
F6.0
aF17.5
aI652
aI828
aa(lp3183
F6.0
aF17.75
aI677
aI786
aa(lp3184
F6.0
aF18.0
aI703
aI741
aa(lp3185
F6.0
aF18.25
aI731
aI692
aa(lp3186
F6.0
aF18.5
aI760
aI641
aa(lp3187
F6.0
aF18.75
aI792
aI584
aa(lp3188
F6.0
aF19.0
aI826
aI522
aa(lp3189
F6.0
aF19.25
aI865
aI451
aa(lp3190
F6.0
aF19.5
aI909
aI369
aa(lp3191
F6.0
aF19.75
aI966
aI261
aa(lp3192
F6.0
aF20.0
aI1082
aI35
aa(lp3193
F6.25
aF10.0
aI36
aI1668
aa(lp3194
F6.25
aF10.25
aI56
aI1647
aa(lp3195
F6.25
aF10.5
aI76
aI1625
aa(lp3196
F6.25
aF10.75
aI96
aI1603
aa(lp3197
F6.25
aF11.25
aI135
aI1558
aa(lp3198
F6.25
aF11.75
aI174
aI1512
aa(lp3199
F6.25
aF12.5
aI232
aI1439
aa(lp3200
F6.25
aF12.75
aI251
aI1415
aa(lp3201
F6.25
aF13.25
aI290
aI1363
aa(lp3202
F6.25
aF13.5
aI309
aI1337
aa(lp3203
F6.25
aF14.0
aI348
aI1282
aa(lp3204
F6.25
aF14.25
aI367
aI1255
aa(lp3205
F6.25
aF14.5
aI387
aI1226
aa(lp3206
F6.25
aF14.75
aI407
aI1197
aa(lp3207
F6.25
aF15.0
aI427
aI1167
aa(lp3208
F6.25
aF15.25
aI448
aI1136
aa(lp3209
F6.25
aF15.5
aI468
aI1105
aa(lp3210
F6.25
aF15.75
aI489
aI1073
aa(lp3211
F6.25
aF16.0
aI510
aI1040
aa(lp3212
F6.25
aF16.25
aI532
aI1005
aa(lp3213
F6.25
aF16.5
aI554
aI970
aa(lp3214
F6.25
aF17.25
aI624
aI855
aa(lp3215
F6.25
aF17.5
aI648
aI814
aa(lp3216
F6.25
aF17.75
aI674
aI770
aa(lp3217
F6.25
aF18.0
aI701
aI724
aa(lp3218
F6.25
aF18.25
aI729
aI675
aa(lp3219
F6.25
aF18.5
aI759
aI622
aa(lp3220
F6.25
aF18.75
aI791
aI565
aa(lp3221
F6.25
aF19.0
aI826
aI502
aa(lp3222
F6.25
aF19.25
aI866
aI428
aa(lp3223
F6.25
aF19.5
aI914
aI339
aa(lp3224
F6.25
aF19.75
aI978
aI217
aa(lp3225
F6.5
aF10.0
aI27
aI1655
aa(lp3226
F6.5
aF10.25
aI47
aI1634
aa(lp3227
F6.5
aF10.5
aI68
aI1612
aa(lp3228
F6.5
aF11.0
aI107
aI1568
aa(lp3229
F6.5
aF11.75
aI166
aI1499
aa(lp3230
F6.5
aF12.75
aI244
aI1402
aa(lp3231
F6.5
aF13.0
aI263
aI1377
aa(lp3232
F6.5
aF13.5
aI302
aI1325
aa(lp3233
F6.5
aF13.75
aI322
aI1297
aa(lp3234
F6.5
aF14.25
aI361
aI1242
aa(lp3235
F6.5
aF14.75
aI401
aI1184
aa(lp3236
F6.5
aF15.25
aI442
aI1123
aa(lp3237
F6.5
aF15.75
aI484
aI1059
aa(lp3238
F6.5
aF16.25
aI527
aI992
aa(lp3239
F6.5
aF17.0
aI596
aI880
aa(lp3240
F6.5
aF17.5
aI645
aI799
aa(lp3241
F6.5
aF18.25
aI727
aI658
aa(lp3242
F6.5
aF18.5
aI758
aI603
aa(lp3243
F6.5
aF18.75
aI791
aI544
aa(lp3244
F6.5
aF19.0
aI828
aI477
aa(lp3245
F6.5
aF19.25
aI870
aI400
aa(lp3246
F6.5
aF19.5
aI921
aI305
aa(lp3247
F6.75
aF10.0
aI19
aI1641
aa(lp3248
F6.75
aF10.5
aI60
aI1598
aa(lp3249
F6.75
aF11.75
aI159
aI1486
aa(lp3250
F6.75
aF12.25
aI198
aI1438
aa(lp3251
F6.75
aF12.75
aI237
aI1389
aa(lp3252
F6.75
aF13.0
aI257
aI1363
aa(lp3253
F6.75
aF13.25
aI276
aI1338
aa(lp3254
F6.75
aF13.5
aI296
aI1311
aa(lp3255
F6.75
aF13.75
aI316
aI1284
aa(lp3256
F6.75
aF14.25
aI355
aI1229
aa(lp3257
F6.75
aF14.75
aI396
aI1170
aa(lp3258
F6.75
aF15.0
aI416
aI1141
aa(lp3259
F6.75
aF15.25
aI437
aI1110
aa(lp3260
F6.75
aF15.5
aI458
aI1078
aa(lp3261
F6.75
aF15.75
aI479
aI1046
aa(lp3262
F6.75
aF16.0
aI501
aI1012
aa(lp3263
F6.75
aF16.25
aI523
aI977
aa(lp3264
F6.75
aF16.5
aI546
aI941
aa(lp3265
F6.75
aF16.75
aI569
aI904
aa(lp3266
F6.75
aF17.25
aI617
aI825
aa(lp3267
F6.75
aF17.5
aI643
aI781
aa(lp3268
F6.75
aF17.75
aI669
aI737
aa(lp3269
F6.75
aF18.0
aI697
aI689
aa(lp3270
F6.75
aF18.25
aI726
aI639
aa(lp3271
F6.75
aF18.5
aI758
aI583
aa(lp3272
F6.75
aF18.75
aI792
aI522
aa(lp3273
F6.75
aF19.0
aI831
aI451
aa(lp3274
F6.75
aF19.25
aI875
aI370
aa(lp3275
F6.75
aF19.5
aI931
aI265
aa(lp3276
F6.75
aF19.75
aI1036
aI62
aa(lp3277
F7.0
aF10.25
aI32
aI1606
aa(lp3278
F7.0
aF11.5
aI132
aI1496
aa(lp3279
F7.0
aF11.75
aI152
aI1472
aa(lp3280
F7.0
aF12.25
aI191
aI1425
aa(lp3281
F7.0
aF12.5
aI211
aI1400
aa(lp3282
F7.0
aF12.75
aI231
aI1375
aa(lp3283
F7.0
aF13.25
aI270
aI1324
aa(lp3284
F7.0
aF13.5
aI290
aI1298
aa(lp3285
F7.0
aF13.75
aI310
aI1271
aa(lp3286
F7.0
aF14.0
aI330
aI1243
aa(lp3287
F7.0
aF14.25
aI350
aI1215
aa(lp3288
F7.0
aF14.5
aI370
aI1187
aa(lp3289
F7.0
aF15.0
aI411
aI1127
aa(lp3290
F7.0
aF15.25
aI432
aI1096
aa(lp3291
F7.0
aF15.75
aI475
aI1031
aa(lp3292
F7.0
aF16.0
aI497
aI997
aa(lp3293
F7.0
aF16.25
aI519
aI963
aa(lp3294
F7.0
aF16.5
aI542
aI926
aa(lp3295
F7.0
aF16.75
aI566
aI888
aa(lp3296
F7.0
aF17.0
aI590
aI849
aa(lp3297
F7.0
aF17.5
aI641
aI764
aa(lp3298
F7.0
aF17.75
aI668
aI718
aa(lp3299
F7.0
aF18.25
aI726
aI618
aa(lp3300
F7.0
aF18.5
aI759
aI560
aa(lp3301
F7.0
aF18.75
aI794
aI498
aa(lp3302
F7.0
aF19.0
aI834
aI425
aa(lp3303
F7.0
aF19.5
aI947
aI214
aa(lp3304
F7.25
aF10.0
aI5
aI1612
aa(lp3305
F7.25
aF10.5
aI46
aI1570
aa(lp3306
F7.25
aF10.75
aI66
aI1548
aa(lp3307
F7.25
aF11.0
aI86
aI1526
aa(lp3308
F7.25
aF11.25
aI106
aI1504
aa(lp3309
F7.25
aF11.5
aI126
aI1481
aa(lp3310
F7.25
aF11.75
aI146
aI1458
aa(lp3311
F7.25
aF12.25
aI185
aI1411
aa(lp3312
F7.25
aF12.75
aI225
aI1361
aa(lp3313
F7.25
aF13.0
aI245
aI1336
aa(lp3314
F7.25
aF13.25
aI265
aI1310
aa(lp3315
F7.25
aF13.5
aI285
aI1283
aa(lp3316
F7.25
aF13.75
aI305
aI1256
aa(lp3317
F7.25
aF14.0
aI325
aI1229
aa(lp3318
F7.25
aF14.25
aI345
aI1201
aa(lp3319
F7.25
aF14.75
aI386
aI1143
aa(lp3320
F7.25
aF15.0
aI407
aI1112
aa(lp3321
F7.25
aF15.25
aI428
aI1081
aa(lp3322
F7.25
aF15.75
aI471
aI1016
aa(lp3323
F7.25
aF16.25
aI516
aI947
aa(lp3324
F7.25
aF16.5
aI539
aI910
aa(lp3325
F7.25
aF16.75
aI563
aI872
aa(lp3326
F7.25
aF17.0
aI588
aI831
aa(lp3327
F7.25
aF17.25
aI613
aI790
aa(lp3328
F7.25
aF17.5
aI639
aI747
aa(lp3329
F7.25
aF18.0
aI696
aI650
aa(lp3330
F7.25
aF18.25
aI727
aI596
aa(lp3331
F7.25
aF18.5
aI760
aI538
aa(lp3332
F7.25
aF18.75
aI797
aI472
aa(lp3333
F7.25
aF19.0
aI840
aI393
aa(lp3334
F7.25
aF19.25
aI891
aI299
aa(lp3335
F7.25
aF19.5
aI969
aI150
aa(lp3336
F7.5
aF10.25
aI19
aI1576
aa(lp3337
F7.5
aF10.5
aI39
aI1555
aa(lp3338
F7.5
aF10.75
aI60
aI1533
aa(lp3339
F7.5
aF11.25
aI100
aI1489
aa(lp3340
F7.5
aF11.5
aI120
aI1467
aa(lp3341
F7.5
aF12.0
aI160
aI1420
aa(lp3342
F7.5
aF12.25
aI180
aI1396
aa(lp3343
F7.5
aF12.5
aI200
aI1371
aa(lp3344
F7.5
aF13.0
aI240
aI1321
aa(lp3345
F7.5
aF13.25
aI260
aI1295
aa(lp3346
F7.5
aF13.5
aI280
aI1269
aa(lp3347
F7.5
aF13.75
aI300
aI1242
aa(lp3348
F7.5
aF14.5
aI361
aI1157
aa(lp3349
F7.5
aF15.0
aI403
aI1097
aa(lp3350
F7.5
aF15.25
aI424
aI1066
aa(lp3351
F7.5
aF15.5
aI446
aI1033
aa(lp3352
F7.5
aF15.75
aI468
aI1000
aa(lp3353
F7.5
aF16.0
aI490
aI966
aa(lp3354
F7.5
aF16.25
aI513
aI931
aa(lp3355
F7.5
aF16.5
aI537
aI893
aa(lp3356
F7.5
aF16.75
aI561
aI854
aa(lp3357
F7.5
aF17.0
aI586
aI814
aa(lp3358
F7.5
aF17.25
aI612
aI771
aa(lp3359
F7.5
aF17.5
aI638
aI728
aa(lp3360
F7.5
aF17.75
aI667
aI679
aa(lp3361
F7.5
aF18.0
aI696
aI629
aa(lp3362
F7.5
aF18.25
aI728
aI574
aa(lp3363
F7.5
aF18.5
aI763
aI512
aa(lp3364
F7.5
aF18.75
aI802
aI442
aa(lp3365
F7.5
aF19.0
aI847
aI360
aa(lp3366
F7.5
aF19.25
aI905
aI251
aa(lp3367
F7.75
aF10.25
aI13
aI1561
aa(lp3368
F7.75
aF10.5
aI34
aI1539
aa(lp3369
F7.75
aF10.75
aI54
aI1518
aa(lp3370
F7.75
aF11.5
aI115
aI1451
aa(lp3371
F7.75
aF11.75
aI135
aI1428
aa(lp3372
F7.75
aF12.0
aI155
aI1405
aa(lp3373
F7.75
aF12.25
aI175
aI1381
aa(lp3374
F7.75
aF12.5
aI195
aI1356
aa(lp3375
F7.75
aF12.75
aI215
aI1331
aa(lp3376
F7.75
aF13.0
aI235
aI1306
aa(lp3377
F7.75
aF13.25
aI255
aI1280
aa(lp3378
F7.75
aF13.5
aI275
aI1254
aa(lp3379
F7.75
aF14.0
aI316
aI1199
aa(lp3380
F7.75
aF14.5
aI357
aI1142
aa(lp3381
F7.75
aF14.75
aI378
aI1112
aa(lp3382
F7.75
aF15.25
aI421
aI1050
aa(lp3383
F7.75
aF15.5
aI443
aI1017
aa(lp3384
F7.75
aF15.75
aI465
aI984
aa(lp3385
F7.75
aF16.0
aI488
aI949
aa(lp3386
F7.75
aF16.25
aI511
aI913
aa(lp3387
F7.75
aF16.5
aI535
aI875
aa(lp3388
F7.75
aF16.75
aI559
aI837
aa(lp3389
F7.75
aF17.0
aI585
aI795
aa(lp3390
F7.75
aF17.25
aI611
aI752
aa(lp3391
F7.75
aF17.5
aI638
aI707
aa(lp3392
F7.75
aF17.75
aI667
aI658
aa(lp3393
F7.75
aF18.0
aI698
aI605
aa(lp3394
F7.75
aF18.25
aI731
aI548
aa(lp3395
F7.75
aF18.5
aI767
aI484
aa(lp3396
F7.75
aF18.75
aI808
aI410
aa(lp3397
F7.75
aF19.0
aI857
aI320
aa(lp3398
F7.75
aF19.25
aI924
aI194
aa(lp3399
F8.0
aF10.25
aI8
aI1545
aa(lp3400
F8.0
aF10.75
aI49
aI1502
aa(lp3401
F8.0
aF11.0
aI69
aI1481
aa(lp3402
F8.0
aF11.75
aI130
aI1413
aa(lp3403
F8.0
aF12.0
aI150
aI1389
aa(lp3404
F8.0
aF12.5
aI190
aI1341
aa(lp3405
F8.0
aF13.5
aI271
aI1238
aa(lp3406
F8.0
aF14.25
aI333
aI1155
aa(lp3407
F8.0
aF14.75
aI375
aI1096
aa(lp3408
F8.0
aF15.5
aI440
aI1001
aa(lp3409
F8.0
aF15.75
aI463
aI966
aa(lp3410
F8.0
aF16.0
aI486
aI931
aa(lp3411
F8.0
aF16.5
aI533
aI858
aa(lp3412
F8.0
aF16.75
aI558
aI818
aa(lp3413
F8.0
aF17.0
aI584
aI776
aa(lp3414
F8.0
aF17.25
aI611
aI732
aa(lp3415
F8.0
aF17.5
aI639
aI685
aa(lp3416
F8.0
aF17.75
aI668
aI636
aa(lp3417
F8.0
aF18.0
aI700
aI581
aa(lp3418
F8.0
aF18.25
aI734
aI522
aa(lp3419
F8.0
aF18.5
aI772
aI454
aa(lp3420
F8.0
aF18.75
aI815
aI377
aa(lp3421
F8.0
aF19.0
aI870
aI275
aa(lp3422
F8.0
aF19.25
aI959
aI105
aa(lp3423
F8.25
aF10.5
aI24
aI1507
aa(lp3424
F8.25
aF11.0
aI65
aI1464
aa(lp3425
F8.25
aF11.25
aI85
aI1442
aa(lp3426
F8.25
aF11.5
aI105
aI1420
aa(lp3427
F8.25
aF12.0
aI146
aI1373
aa(lp3428
F8.25
aF12.25
aI166
aI1349
aa(lp3429
F8.25
aF12.5
aI186
aI1325
aa(lp3430
F8.25
aF13.0
aI227
aI1274
aa(lp3431
F8.25
aF13.25
aI247
aI1249
aa(lp3432
F8.25
aF13.75
aI288
aI1195
aa(lp3433
F8.25
aF14.0
aI309
aI1167
aa(lp3434
F8.25
aF14.25
aI330
aI1138
aa(lp3435
F8.25
aF14.5
aI351
aI1109
aa(lp3436
F8.25
aF14.75
aI372
aI1079
aa(lp3437
F8.25
aF15.0
aI394
aI1048
aa(lp3438
F8.25
aF15.25
aI416
aI1016
aa(lp3439
F8.25
aF15.5
aI438
aI983
aa(lp3440
F8.25
aF15.75
aI461
aI949
aa(lp3441
F8.25
aF16.0
aI484
aI914
aa(lp3442
F8.25
aF16.5
aI533
aI837
aa(lp3443
F8.25
aF17.0
aI584
aI755
aa(lp3444
F8.25
aF17.25
aI611
aI711
aa(lp3445
F8.25
aF17.5
aI640
aI663
aa(lp3446
F8.25
aF17.75
aI670
aI612
aa(lp3447
F8.25
aF18.0
aI703
aI555
aa(lp3448
F8.25
aF18.25
aI739
aI492
aa(lp3449
F8.25
aF18.5
aI778
aI423
aa(lp3450
F8.25
aF18.75
aI827
aI334
aa(lp3451
F8.25
aF19.0
aI888
aI220
aa(lp3452
F8.5
aF10.5
aI20
aI1490
aa(lp3453
F8.5
aF10.75
aI40
aI1470
aa(lp3454
F8.5
aF11.25
aI81
aI1426
aa(lp3455
F8.5
aF11.75
aI122
aI1380
aa(lp3456
F8.5
aF12.0
aI142
aI1357
aa(lp3457
F8.5
aF12.25
aI162
aI1333
aa(lp3458
F8.5
aF12.75
aI203
aI1283
aa(lp3459
F8.5
aF13.25
aI244
aI1232
aa(lp3460
F8.5
aF13.5
aI264
aI1206
aa(lp3461
F8.5
aF13.75
aI285
aI1178
aa(lp3462
F8.5
aF14.0
aI306
aI1150
aa(lp3463
F8.5
aF14.5
aI348
aI1092
aa(lp3464
F8.5
aF14.75
aI370
aI1061
aa(lp3465
F8.5
aF15.0
aI392
aI1030
aa(lp3466
F8.5
aF15.25
aI414
aI998
aa(lp3467
F8.5
aF15.5
aI437
aI964
aa(lp3468
F8.5
aF16.5
aI532
aI818
aa(lp3469
F8.5
aF16.75
aI558
aI777
aa(lp3470
F8.5
aF17.0
aI585
aI733
aa(lp3471
F8.5
aF17.25
aI613
aI687
aa(lp3472
F8.5
aF17.5
aI642
aI639
aa(lp3473
F8.5
aF17.75
aI673
aI586
aa(lp3474
F8.5
aF18.0
aI707
aI528
aa(lp3475
F8.5
aF18.25
aI744
aI463
aa(lp3476
F8.5
aF18.5
aI787
aI386
aa(lp3477
F8.5
aF18.75
aI839
aI290
aa(lp3478
F8.5
aF19.0
aI918
aI141
aa(lp3479
F8.75
aF10.5
aI16
aI1474
aa(lp3480
F8.75
aF10.75
aI37
aI1452
aa(lp3481
F8.75
aF11.0
aI57
aI1431
aa(lp3482
F8.75
aF11.5
aI98
aI1386
aa(lp3483
F8.75
aF12.25
aI159
aI1316
aa(lp3484
F8.75
aF12.5
aI179
aI1292
aa(lp3485
F8.75
aF12.75
aI200
aI1266
aa(lp3486
F8.75
aF13.25
aI241
aI1215
aa(lp3487
F8.75
aF13.5
aI262
aI1188
aa(lp3488
F8.75
aF13.75
aI283
aI1160
aa(lp3489
F8.75
aF14.0
aI304
aI1132
aa(lp3490
F8.75
aF15.0
aI390
aI1012
aa(lp3491
F8.75
aF15.25
aI413
aI979
aa(lp3492
F8.75
aF16.0
aI483
aI874
aa(lp3493
F8.75
aF16.25
aI507
aI837
aa(lp3494
F8.75
aF16.5
aI533
aI796
aa(lp3495
F8.75
aF16.75
aI559
aI755
aa(lp3496
F8.75
aF17.0
aI586
aI711
aa(lp3497
F8.75
aF17.25
aI615
aI663
aa(lp3498
F8.75
aF17.5
aI645
aI613
aa(lp3499
F8.75
aF17.75
aI677
aI559
aa(lp3500
F8.75
aF18.0
aI713
aI496
aa(lp3501
F8.75
aF18.25
aI753
aI426
aa(lp3502
F8.75
aF18.5
aI799
aI343
aa(lp3503
F8.75
aF18.75
aI858
aI233
aa(lp3504
F9.0
aF10.5
aI13
aI1456
aa(lp3505
F9.0
aF10.75
aI34
aI1434
aa(lp3506
F9.0
aF11.0
aI54
aI1413
aa(lp3507
F9.0
aF11.25
aI75
aI1391
aa(lp3508
F9.0
aF11.5
aI95
aI1369
aa(lp3509
F9.0
aF11.75
aI115
aI1346
aa(lp3510
F9.0
aF12.0
aI136
aI1322
aa(lp3511
F9.0
aF12.25
aI156
aI1299
aa(lp3512
F9.0
aF12.5
aI177
aI1274
aa(lp3513
F9.0
aF12.75
aI197
aI1249
aa(lp3514
F9.0
aF13.0
aI218
aI1223
aa(lp3515
F9.0
aF13.25
aI239
aI1197
aa(lp3516
F9.0
aF14.0
aI302
aI1114
aa(lp3517
F9.0
aF14.25
aI323
aI1086
aa(lp3518
F9.0
aF14.5
aI345
aI1055
aa(lp3519
F9.0
aF14.75
aI367
aI1024
aa(lp3520
F9.0
aF15.0
aI389
aI993
aa(lp3521
F9.0
aF15.25
aI412
aI960
aa(lp3522
F9.0
aF15.5
aI435
aI926
aa(lp3523
F9.0
aF15.75
aI459
aI890
aa(lp3524
F9.0
aF16.0
aI483
aI853
aa(lp3525
F9.0
aF16.25
aI508
aI815
aa(lp3526
F9.0
aF16.5
aI534
aI774
aa(lp3527
F9.0
aF17.0
aI588
aI687
aa(lp3528
F9.0
aF17.25
aI617
aI639
aa(lp3529
F9.0
aF17.75
aI682
aI529
aa(lp3530
F9.0
aF18.0
aI719
aI465
aa(lp3531
F9.0
aF18.5
aI813
aI296
aa(lp3532
F9.0
aF18.75
aI887
aI157
aa(lp3533
F9.25
aF10.75
aI31
aI1417
aa(lp3534
F9.25
aF11.0
aI52
aI1395
aa(lp3535
F9.25
aF11.25
aI72
aI1373
aa(lp3536
F9.25
aF11.75
aI113
aI1328
aa(lp3537
F9.25
aF12.25
aI154
aI1280
aa(lp3538
F9.25
aF12.75
aI195
aI1231
aa(lp3539
F9.25
aF13.0
aI216
aI1205
aa(lp3540
F9.25
aF13.75
aI279
aI1124
aa(lp3541
F9.25
aF14.0
aI300
aI1096
aa(lp3542
F9.25
aF14.25
aI322
aI1066
aa(lp3543
F9.25
aF14.5
aI344
aI1036
aa(lp3544
F9.25
aF14.75
aI366
aI1005
aa(lp3545
F9.25
aF15.5
aI435
aI905
aa(lp3546
F9.25
aF15.75
aI459
aI869
aa(lp3547
F9.25
aF16.0
aI483
aI833
aa(lp3548
F9.25
aF16.5
aI535
aI752
aa(lp3549
F9.25
aF17.25
aI621
aI612
aa(lp3550
F9.25
aF17.5
aI654
aI556
aa(lp3551
F9.25
aF17.75
aI689
aI496
aa(lp3552
F9.25
aF18.0
aI728
aI428
aa(lp3553
F9.25
aF18.25
aI774
aI346
aa(lp3554
F9.25
aF18.5
aI832
aI239
aa(lp3555
F9.5
aF10.75
aI29
aI1398
aa(lp3556
F9.5
aF11.25
aI70
aI1355
aa(lp3557
F9.5
aF11.75
aI111
aI1309
aa(lp3558
F9.5
aF12.25
aI152
aI1262
aa(lp3559
F9.5
aF12.5
aI173
aI1237
aa(lp3560
F9.5
aF12.75
aI194
aI1212
aa(lp3561
F9.5
aF13.5
aI257
aI1132
aa(lp3562
F9.5
aF13.75
aI278
aI1105
aa(lp3563
F9.5
aF14.25
aI321
aI1047
aa(lp3564
F9.5
aF14.5
aI343
aI1017
aa(lp3565
F9.5
aF14.75
aI366
aI985
aa(lp3566
F9.5
aF15.5
aI435
aI885
aa(lp3567
F9.5
aF15.75
aI460
aI847
aa(lp3568
F9.5
aF16.0
aI485
aI809
aa(lp3569
F9.5
aF16.25
aI511
aI769
aa(lp3570
F9.5
aF16.5
aI537
aI728
aa(lp3571
F9.5
aF16.75
aI565
aI683
aa(lp3572
F9.5
aF17.0
aI595
aI634
aa(lp3573
F9.5
aF17.25
aI626
aI583
aa(lp3574
F9.5
aF17.5
aI660
aI525
aa(lp3575
F9.5
aF17.75
aI697
aI461
aa(lp3576
F9.5
aF18.0
aI739
aI387
aa(lp3577
F9.5
aF18.25
aI790
aI295
aa(lp3578
F9.5
aF18.5
aI866
aI153
aa(lp3579
F9.75
aF10.5
aI7
aI1400
aa(lp3580
F9.75
aF11.5
aI89
aI1313
aa(lp3581
F9.75
aF11.75
aI110
aI1290
aa(lp3582
F9.75
aF12.0
aI130
aI1267
aa(lp3583
F9.75
aF12.25
aI151
aI1243
aa(lp3584
F9.75
aF12.5
aI172
aI1218
aa(lp3585
F9.75
aF13.25
aI235
aI1140
aa(lp3586
F9.75
aF13.5
aI256
aI1113
aa(lp3587
F9.75
aF14.0
aI299
aI1056
aa(lp3588
F9.75
aF14.5
aI343
aI996
aa(lp3589
F9.75
aF14.75
aI366
aI964
aa(lp3590
F9.75
aF15.0
aI389
aI931
aa(lp3591
F9.75
aF15.5
aI437
aI861
aa(lp3592
F9.75
aF15.75
aI461
aI825
aa(lp3593
F9.75
aF16.0
aI487
aI785
aa(lp3594
F9.75
aF16.25
aI513
aI745
aa(lp3595
F9.75
aF16.5
aI541
aI701
aa(lp3596
F9.75
aF16.75
aI569
aI656
aa(lp3597
F9.75
aF17.0
aI599
aI607
aa(lp3598
F9.75
aF17.25
aI632
aI552
aa(lp3599
F9.75
aF17.5
aI667
aI492
aa(lp3600
F9.75
aF17.75
aI707
aI423
aa(lp3601
F9.75
aF18.0
aI753
aI341
aa(lp3602
F9.75
aF18.25
aI813
aI231
aa(lp3603
F10.0
aF10.5
aI6
aI1380
aa(lp3604
F10.0
aF10.75
aI26
aI1360
aa(lp3605
F10.0
aF11.0
aI47
aI1338
aa(lp3606
F10.0
aF11.5
aI88
aI1294
aa(lp3607
F10.0
aF11.75
aI109
aI1270
aa(lp3608
F10.0
aF12.25
aI150
aI1223
aa(lp3609
F10.0
aF12.5
aI171
aI1198
aa(lp3610
F10.0
aF12.75
aI192
aI1173
aa(lp3611
F10.0
aF13.0
aI213
aI1147
aa(lp3612
F10.0
aF13.5
aI256
aI1092
aa(lp3613
F10.0
aF13.75
aI277
aI1065
aa(lp3614
F10.0
aF14.0
aI299
aI1036
aa(lp3615
F10.0
aF14.25
aI321
aI1006
aa(lp3616
F10.0
aF14.5
aI344
aI974
aa(lp3617
F10.0
aF14.75
aI367
aI942
aa(lp3618
F10.0
aF15.0
aI390
aI909
aa(lp3619
F10.0
aF15.25
aI414
aI874
aa(lp3620
F10.0
aF15.5
aI438
aI839
aa(lp3621
F10.0
aF15.75
aI464
aI800
aa(lp3622
F10.0
aF16.0
aI489
aI762
aa(lp3623
F10.0
aF16.25
aI517
aI718
aa(lp3624
F10.0
aF16.5
aI545
aI674
aa(lp3625
F10.0
aF16.75
aI574
aI627
aa(lp3626
F10.0
aF17.0
aI605
aI576
aa(lp3627
F10.0
aF17.25
aI639
aI519
aa(lp3628
F10.0
aF17.5
aI677
aI454
aa(lp3629
F10.0
aF17.75
aI719
aI380
aa(lp3630
F10.0
aF18.0
aI771
aI286
aa(lp3631
F10.0
aF18.25
aI848
aI142
aa(lp3632
F10.25
aF10.5
aI5
aI1361
aa(lp3633
F10.25
aF10.75
aI26
aI1339
aa(lp3634
F10.25
aF11.0
aI46
aI1318
aa(lp3635
F10.25
aF11.25
aI67
aI1296
aa(lp3636
F10.25
aF11.75
aI108
aI1251
aa(lp3637
F10.25
aF12.0
aI129
aI1227
aa(lp3638
F10.25
aF12.5
aI171
aI1178
aa(lp3639
F10.25
aF12.75
aI192
aI1152
aa(lp3640
F10.25
aF13.0
aI213
aI1126
aa(lp3641
F10.25
aF13.25
aI234
aI1100
aa(lp3642
F10.25
aF13.5
aI256
aI1072
aa(lp3643
F10.25
aF13.75
aI278
aI1043
aa(lp3644
F10.25
aF14.0
aI300
aI1014
aa(lp3645
F10.25
aF14.25
aI322
aI984
aa(lp3646
F10.25
aF14.5
aI345
aI952
aa(lp3647
F10.25
aF14.75
aI368
aI920
aa(lp3648
F10.25
aF15.0
aI392
aI886
aa(lp3649
F10.25
aF15.25
aI416
aI851
aa(lp3650
F10.25
aF15.5
aI441
aI814
aa(lp3651
F10.25
aF15.75
aI466
aI776
aa(lp3652
F10.25
aF16.0
aI493
aI735
aa(lp3653
F10.25
aF16.25
aI521
aI691
aa(lp3654
F10.25
aF16.5
aI549
aI646
aa(lp3655
F10.25
aF16.75
aI580
aI596
aa(lp3656
F10.25
aF17.25
aI648
aI482
aa(lp3657
F10.25
aF17.5
aI688
aI413
aa(lp3658
F10.25
aF17.75
aI734
aI332
aa(lp3659
F10.25
aF18.0
aI796
aI218
aa(lp3660
F10.5
aF10.5
aI5
aI1340
aa(lp3661
F10.5
aF11.0
aI46
aI1298
aa(lp3662
F10.5
aF11.75
aI108
aI1230
aa(lp3663
F10.5
aF12.0
aI129
aI1206
aa(lp3664
F10.5
aF12.25
aI150
aI1182
aa(lp3665
F10.5
aF12.5
aI171
aI1157
aa(lp3666
F10.5
aF12.75
aI192
aI1132
aa(lp3667
F10.5
aF13.25
aI235
aI1078
aa(lp3668
F10.5
aF13.5
aI257
aI1050
aa(lp3669
F10.5
aF13.75
aI279
aI1021
aa(lp3670
F10.5
aF14.0
aI301
aI992
aa(lp3671
F10.5
aF14.25
aI324
aI961
aa(lp3672
F10.5
aF14.5
aI347
aI929
aa(lp3673
F10.5
aF15.0
aI394
aI862
aa(lp3674
F10.5
aF15.25
aI419
aI826
aa(lp3675
F10.5
aF15.75
aI470
aI749
aa(lp3676
F10.5
aF16.0
aI497
aI708
aa(lp3677
F10.5
aF16.25
aI525
aI664
aa(lp3678
F10.5
aF16.5
aI555
aI616
aa(lp3679
F10.5
aF17.0
aI621
aI507
aa(lp3680
F10.5
aF17.25
aI659
aI442
aa(lp3681
F10.5
aF17.5
aI702
aI367
aa(lp3682
F10.5
aF17.75
aI755
aI272
aa(lp3683
F10.5
aF18.0
aI840
aI112
aa(lp3684
F10.75
aF10.75
aI26
aI1298
aa(lp3685
F10.75
aF11.25
aI67
aI1255
aa(lp3686
F10.75
aF11.5
aI88
aI1232
aa(lp3687
F10.75
aF12.0
aI130
aI1185
aa(lp3688
F10.75
aF12.25
aI151
aI1160
aa(lp3689
F10.75
aF12.5
aI172
aI1135
aa(lp3690
F10.75
aF12.75
aI193
aI1110
aa(lp3691
F10.75
aF13.25
aI236
aI1056
aa(lp3692
F10.75
aF13.5
aI258
aI1028
aa(lp3693
F10.75
aF13.75
aI280
aI999
aa(lp3694
F10.75
aF14.25
aI326
aI937
aa(lp3695
F10.75
aF14.5
aI349
aI905
aa(lp3696
F10.75
aF15.0
aI397
aI837
aa(lp3697
F10.75
aF15.5
aI448
aI762
aa(lp3698
F10.75
aF15.75
aI475
aI721
aa(lp3699
F10.75
aF16.0
aI502
aI679
aa(lp3700
F10.75
aF16.5
aI562
aI583
aa(lp3701
F10.75
aF16.75
aI595
aI529
aa(lp3702
F10.75
aF17.0
aI632
aI467
aa(lp3703
F10.75
aF17.25
aI672
aI398
aa(lp3704
F10.75
aF17.5
aI720
aI313
aa(lp3705
F10.75
aF17.75
aI785
aI194
aa(lp3706
F11.0
aF10.5
aI6
aI1298
aa(lp3707
F11.0
aF11.0
aI47
aI1256
aa(lp3708
F11.0
aF11.25
aI68
aI1233
aa(lp3709
F11.0
aF11.5
aI89
aI1210
aa(lp3710
F11.0
aF11.75
aI110
aI1187
aa(lp3711
F11.0
aF12.0
aI131
aI1163
aa(lp3712
F11.0
aF13.0
aI216
aI1061
aa(lp3713
F11.0
aF13.25
aI238
aI1033
aa(lp3714
F11.0
aF13.5
aI260
aI1005
aa(lp3715
F11.0
aF14.0
aI305
aI945
aa(lp3716
F11.0
aF14.25
aI328
aI914
aa(lp3717
F11.0
aF15.25
aI426
aI774
aa(lp3718
F11.0
aF15.5
aI453
aI733
aa(lp3719
F11.0
aF15.75
aI480
aI692
aa(lp3720
F11.0
aF16.0
aI509
aI647
aa(lp3721
F11.0
aF16.25
aI539
aI599
aa(lp3722
F11.0
aF16.5
aI571
aI547
aa(lp3723
F11.0
aF16.75
aI606
aI489
aa(lp3724
F11.0
aF17.0
aI644
aI425
aa(lp3725
F11.0
aF17.25
aI689
aI346
aa(lp3726
F11.0
aF17.5
aI745
aI245
aa(lp3727
F11.0
aF17.75
aI866
aI14
aa(lp3728
F11.25
aF10.75
aI28
aI1255
aa(lp3729
F11.25
aF11.0
aI49
aI1233
aa(lp3730
F11.25
aF11.25
aI70
aI1210
aa(lp3731
F11.25
aF11.75
aI111
aI1165
aa(lp3732
F11.25
aF12.0
aI132
aI1141
aa(lp3733
F11.25
aF13.0
aI218
aI1038
aa(lp3734
F11.25
aF13.25
aI240
aI1010
aa(lp3735
F11.25
aF13.5
aI263
aI980
aa(lp3736
F11.25
aF13.75
aI285
aI951
aa(lp3737
F11.25
aF14.0
aI308
aI920
aa(lp3738
F11.25
aF14.5
aI356
aI854
aa(lp3739
F11.25
aF14.75
aI380
aI820
aa(lp3740
F11.25
aF15.0
aI405
aI784
aa(lp3741
F11.25
aF15.25
aI431
aI745
aa(lp3742
F11.25
aF15.5
aI458
aI705
aa(lp3743
F11.25
aF15.75
aI486
aI662
aa(lp3744
F11.25
aF16.0
aI516
aI615
aa(lp3745
F11.25
aF16.25
aI547
aI565
aa(lp3746
F11.25
aF16.5
aI581
aI509
aa(lp3747
F11.25
aF16.75
aI618
aI447
aa(lp3748
F11.25
aF17.0
aI660
aI375
aa(lp3749
F11.25
aF17.25
aI711
aI285
aa(lp3750
F11.25
aF17.5
aI783
aI152
aa(lp3751
F11.5
aF10.75
aI30
aI1232
aa(lp3752
F11.5
aF11.0
aI51
aI1210
aa(lp3753
F11.5
aF11.5
aI92
aI1166
aa(lp3754
F11.5
aF12.25
aI156
aI1092
aa(lp3755
F11.5
aF12.5
aI177
aI1067
aa(lp3756
F11.5
aF13.0
aI221
aI1013
aa(lp3757
F11.5
aF13.25
aI243
aI985
aa(lp3758
F11.5
aF13.75
aI289
aI925
aa(lp3759
F11.5
aF14.0
aI312
aI894
aa(lp3760
F11.5
aF14.25
aI336
aI861
aa(lp3761
F11.5
aF14.75
aI385
aI792
aa(lp3762
F11.5
aF15.0
aI411
aI754
aa(lp3763
F11.5
aF15.25
aI437
aI715
aa(lp3764
F11.5
aF15.5
aI465
aI673
aa(lp3765
F11.5
aF15.75
aI494
aI628
aa(lp3766
F11.5
aF16.0
aI525
aI579
aa(lp3767
F11.5
aF16.25
aI557
aI527
aa(lp3768
F11.5
aF16.5
aI593
aI468
aa(lp3769
F11.5
aF16.75
aI633
aI400
aa(lp3770
F11.5
aF17.0
aI680
aI318
aa(lp3771
F11.5
aF17.25
aI741
aI207
aa(lp3772
F11.75
aF10.5
aI12
aI1230
aa(lp3773
F11.75
aF11.0
aI53
aI1187
aa(lp3774
F11.75
aF11.25
aI74
aI1165
aa(lp3775
F11.75
aF11.75
aI116
aI1118
aa(lp3776
F11.75
aF12.0
aI137
aI1094
aa(lp3777
F11.75
aF12.25
aI159
aI1068
aa(lp3778
F11.75
aF12.5
aI180
aI1043
aa(lp3779
F11.75
aF12.75
aI202
aI1016
aa(lp3780
F11.75
aF13.25
aI247
aI959
aa(lp3781
F11.75
aF13.5
aI269
aI931
aa(lp3782
F11.75
aF13.75
aI293
aI899
aa(lp3783
F11.75
aF14.0
aI316
aI868
aa(lp3784
F11.75
aF14.5
aI365
aI799
aa(lp3785
F11.75
aF14.75
aI391
aI762
aa(lp3786
F11.75
aF15.0
aI417
aI724
aa(lp3787
F11.75
aF15.5
aI472
aI641
aa(lp3788
F11.75
aF15.75
aI503
aI592
aa(lp3789
F11.75
aF16.0
aI534
aI543
aa(lp3790
F11.75
aF16.25
aI569
aI486
aa(lp3791
F11.75
aF16.5
aI607
aI422
aa(lp3792
F11.75
aF16.75
aI652
aI345
aa(lp3793
F11.75
aF17.25
aI806
aI60
aa(lp3794
F12.0
aF10.5
aI15
aI1206
aa(lp3795
F12.0
aF10.75
aI35
aI1185
aa(lp3796
F12.0
aF11.0
aI56
aI1163
aa(lp3797
F12.0
aF11.25
aI77
aI1141
aa(lp3798
F12.0
aF11.75
aI119
aI1094
aa(lp3799
F12.0
aF12.0
aI141
aI1068
aa(lp3800
F12.0
aF12.25
aI162
aI1044
aa(lp3801
F12.0
aF12.5
aI184
aI1017
aa(lp3802
F12.0
aF12.75
aI206
aI990
aa(lp3803
F12.0
aF13.0
aI228
aI963
aa(lp3804
F12.0
aF13.25
aI251
aI933
aa(lp3805
F12.0
aF13.5
aI274
aI903
aa(lp3806
F12.0
aF14.0
aI321
aI840
aa(lp3807
F12.0
aF14.25
aI346
aI805
aa(lp3808
F12.0
aF14.5
aI371
aI770
aa(lp3809
F12.0
aF14.75
aI397
aI732
aa(lp3810
F12.0
aF15.0
aI424
aI692
aa(lp3811
F12.0
aF15.25
aI452
aI650
aa(lp3812
F12.0
aF15.5
aI482
aI604
aa(lp3813
F12.0
aF15.75
aI513
aI555
aa(lp3814
F12.0
aF16.0
aI546
aI502
aa(lp3815
F12.0
aF16.25
aI584
aI439
aa(lp3816
F12.0
aF16.5
aI625
aI369
aa(lp3817
F12.0
aF16.75
aI676
aI279
aa(lp3818
F12.0
aF17.0
aI750
aI143
aa(lp3819
F12.25
aF10.5
aI18
aI1182
aa(lp3820
F12.25
aF10.75
aI39
aI1160
aa(lp3821
F12.25
aF11.5
aI102
aI1092
aa(lp3822
F12.25
aF11.75
aI123
aI1068
aa(lp3823
F12.25
aF12.0
aI144
aI1044
aa(lp3824
F12.25
aF12.25
aI166
aI1018
aa(lp3825
F12.25
aF12.5
aI188
aI991
aa(lp3826
F12.25
aF12.75
aI210
aI964
aa(lp3827
F12.25
aF13.0
aI233
aI935
aa(lp3828
F12.25
aF13.75
aI303
aI843
aa(lp3829
F12.25
aF14.0
aI327
aI810
aa(lp3830
F12.25
aF14.5
aI378
aI738
aa(lp3831
F12.25
aF14.75
aI405
aI699
aa(lp3832
F12.25
aF15.0
aI432
aI659
aa(lp3833
F12.25
aF15.25
aI461
aI615
aa(lp3834
F12.25
aF15.5
aI492
aI566
aa(lp3835
F12.25
aF15.75
aI525
aI514
aa(lp3836
F12.25
aF16.0
aI560
aI457
aa(lp3837
F12.25
aF16.25
aI601
aI388
aa(lp3838
F12.25
aF16.5
aI648
aI306
aa(lp3839
F12.25
aF16.75
aI712
aI191
aa(lp3840
F12.5
aF10.25
aI1
aI1178
aa(lp3841
F12.5
aF10.5
aI22
aI1157
aa(lp3842
F12.5
aF10.75
aI43
aI1135
aa(lp3843
F12.5
aF11.5
aI106
aI1067
aa(lp3844
F12.5
aF11.75
aI127
aI1043
aa(lp3845
F12.5
aF12.0
aI149
aI1017
aa(lp3846
F12.5
aF12.25
aI171
aI991
aa(lp3847
F12.5
aF12.5
aI193
aI964
aa(lp3848
F12.5
aF12.75
aI215
aI937
aa(lp3849
F12.5
aF13.0
aI238
aI908
aa(lp3850
F12.5
aF13.25
aI261
aI878
aa(lp3851
F12.5
aF13.5
aI285
aI846
aa(lp3852
F12.5
aF13.75
aI309
aI814
aa(lp3853
F12.5
aF14.0
aI334
aI779
aa(lp3854
F12.5
aF14.25
aI359
aI744
aa(lp3855
F12.5
aF14.5
aI385
aI707
aa(lp3856
F12.5
aF14.75
aI413
aI666
aa(lp3857
F12.5
aF15.0
aI442
aI622
aa(lp3858
F12.5
aF15.25
aI472
aI576
aa(lp3859
F12.5
aF15.75
aI539
aI469
aa(lp3860
F12.5
aF16.0
aI577
aI406
aa(lp3861
F12.5
aF16.25
aI622
aI329
aa(lp3862
F12.5
aF16.5
aI680
aI226
aa(lp3863
F12.75
aF10.25
aI6
aI1152
aa(lp3864
F12.75
aF10.5
aI26
aI1132
aa(lp3865
F12.75
aF10.75
aI47
aI1110
aa(lp3866
F12.75
aF11.75
aI132
aI1016
aa(lp3867
F12.75
aF12.0
aI154
aI990
aa(lp3868
F12.75
aF12.25
aI176
aI964
aa(lp3869
F12.75
aF12.5
aI198
aI937
aa(lp3870
F12.75
aF12.75
aI221
aI908
aa(lp3871
F12.75
aF13.0
aI244
aI879
aa(lp3872
F12.75
aF13.25
aI267
aI849
aa(lp3873
F12.75
aF13.5
aI291
aI817
aa(lp3874
F12.75
aF13.75
aI316
aI783
aa(lp3875
F12.75
aF14.0
aI341
aI748
aa(lp3876
F12.75
aF14.25
aI367
aI711
aa(lp3877
F12.75
aF14.5
aI394
aI672
aa(lp3878
F12.75
aF14.75
aI423
aI629
aa(lp3879
F12.75
aF15.0
aI452
aI585
aa(lp3880
F12.75
aF15.25
aI484
aI535
aa(lp3881
F12.75
aF15.5
aI518
aI481
aa(lp3882
F12.75
aF15.75
aI556
aI418
aa(lp3883
F12.75
aF16.25
aI652
aI252
aa(lp3884
F12.75
aF16.5
aI737
aI95
aa(lp3885
F13.0
aF10.25
aI11
aI1126
aa(lp3886
F13.0
aF11.0
aI73
aI1061
aa(lp3887
F13.0
aF11.25
aI94
aI1038
aa(lp3888
F13.0
aF11.5
aI116
aI1013
aa(lp3889
F13.0
aF12.0
aI159
aI963
aa(lp3890
F13.0
aF12.25
aI182
aI935
aa(lp3891
F13.0
aF12.5
aI204
aI908
aa(lp3892
F13.0
aF12.75
aI227
aI879
aa(lp3893
F13.0
aF13.0
aI250
aI850
aa(lp3894
F13.0
aF13.25
aI274
aI818
aa(lp3895
F13.0
aF13.75
aI324
aI750
aa(lp3896
F13.0
aF14.0
aI350
aI714
aa(lp3897
F13.0
aF14.25
aI377
aI675
aa(lp3898
F13.0
aF14.5
aI405
aI634
aa(lp3899
F13.0
aF14.75
aI434
aI590
aa(lp3900
F13.0
aF15.25
aI499
aI489
aa(lp3901
F13.0
aF15.5
aI535
aI430
aa(lp3902
F13.0
aF15.75
aI576
aI362
aa(lp3903
F13.0
aF16.0
aI626
aI275
aa(lp3904
F13.0
aF16.25
aI698
aI144
aa(lp3905
F13.25
aF10.25
aI16
aI1100
aa(lp3906
F13.25
aF10.5
aI37
aI1078
aa(lp3907
F13.25
aF10.75
aI58
aI1056
aa(lp3908
F13.25
aF11.0
aI79
aI1033
aa(lp3909
F13.25
aF11.25
aI100
aI1010
aa(lp3910
F13.25
aF11.5
aI122
aI985
aa(lp3911
F13.25
aF11.75
aI144
aI959
aa(lp3912
F13.25
aF12.0
aI166
aI933
aa(lp3913
F13.25
aF12.5
aI211
aI878
aa(lp3914
F13.25
aF12.75
aI234
aI849
aa(lp3915
F13.25
aF13.0
aI258
aI818
aa(lp3916
F13.25
aF13.25
aI282
aI786
aa(lp3917
F13.25
aF13.5
aI307
aI752
aa(lp3918
F13.25
aF13.75
aI333
aI716
aa(lp3919
F13.25
aF14.25
aI387
aI638
aa(lp3920
F13.25
aF14.5
aI416
aI595
aa(lp3921
F13.25
aF14.75
aI447
aI548
aa(lp3922
F13.25
aF15.0
aI480
aI496
aa(lp3923
F13.25
aF15.25
aI516
aI439
aa(lp3924
F13.25
aF15.5
aI555
aI374
aa(lp3925
F13.25
aF15.75
aI603
aI292
aa(lp3926
F13.25
aF16.0
aI667
aI177
aa(lp3927
F13.5
aF10.0
aI2
aI1092
aa(lp3928
F13.5
aF10.25
aI22
aI1072
aa(lp3929
F13.5
aF10.5
aI43
aI1050
aa(lp3930
F13.5
aF10.75
aI64
aI1028
aa(lp3931
F13.5
aF11.0
aI85
aI1005
aa(lp3932
F13.5
aF11.25
aI107
aI980
aa(lp3933
F13.5
aF11.75
aI150
aI931
aa(lp3934
F13.5
aF12.0
aI173
aI903
aa(lp3935
F13.5
aF12.5
aI219
aI846
aa(lp3936
F13.5
aF12.75
aI242
aI817
aa(lp3937
F13.5
aF13.25
aI291
aI752
aa(lp3938
F13.5
aF13.5
aI317
aI716
aa(lp3939
F13.5
aF13.75
aI343
aI680
aa(lp3940
F13.5
aF14.0
aI370
aI641
aa(lp3941
F13.5
aF14.25
aI399
aI598
aa(lp3942
F13.5
aF14.5
aI429
aI553
aa(lp3943
F13.5
aF14.75
aI461
aI504
aa(lp3944
F13.5
aF15.0
aI497
aI446
aa(lp3945
F13.5
aF15.25
aI536
aI382
aa(lp3946
F13.5
aF15.5
aI582
aI304
aa(lp3947
F13.5
aF15.75
aI641
aI200
aa(lp3948
F13.75
aF10.0
aI8
aI1065
aa(lp3949
F13.75
aF10.25
aI29
aI1043
aa(lp3950
F13.75
aF10.5
aI50
aI1021
aa(lp3951
F13.75
aF10.75
aI71
aI999
aa(lp3952
F13.75
aF11.25
aI114
aI951
aa(lp3953
F13.75
aF11.5
aI136
aI925
aa(lp3954
F13.75
aF11.75
aI158
aI899
aa(lp3955
F13.75
aF12.25
aI204
aI843
aa(lp3956
F13.75
aF12.5
aI227
aI814
aa(lp3957
F13.75
aF12.75
aI251
aI783
aa(lp3958
F13.75
aF13.0
aI276
aI750
aa(lp3959
F13.75
aF13.25
aI301
aI716
aa(lp3960
F13.75
aF13.5
aI327
aI680
aa(lp3961
F13.75
aF13.75
aI354
aI642
aa(lp3962
F13.75
aF14.25
aI413
aI555
aa(lp3963
F13.75
aF14.5
aI445
aI506
aa(lp3964
F13.75
aF14.75
aI479
aI452
aa(lp3965
F13.75
aF15.0
aI518
aI389
aa(lp3966
F13.75
aF15.25
aI562
aI315
aa(lp3967
F13.75
aF15.5
aI619
aI215
aa(lp3968
F14.0
aF10.0
aI15
aI1036
aa(lp3969
F14.0
aF10.25
aI36
aI1014
aa(lp3970
F14.0
aF10.5
aI57
aI992
aa(lp3971
F14.0
aF11.0
aI100
aI945
aa(lp3972
F14.0
aF11.25
aI122
aI920
aa(lp3973
F14.0
aF11.5
aI144
aI894
aa(lp3974
F14.0
aF11.75
aI166
aI868
aa(lp3975
F14.0
aF12.0
aI189
aI840
aa(lp3976
F14.0
aF12.25
aI213
aI810
aa(lp3977
F14.0
aF12.5
aI237
aI779
aa(lp3978
F14.0
aF12.75
aI261
aI748
aa(lp3979
F14.0
aF13.0
aI286
aI714
aa(lp3980
F14.0
aF13.5
aI339
aI641
aa(lp3981
F14.0
aF14.0
aI397
aI556
aa(lp3982
F14.0
aF14.25
aI429
aI507
aa(lp3983
F14.0
aF14.5
aI463
aI454
aa(lp3984
F14.0
aF14.75
aI500
aI395
aa(lp3985
F14.0
aF15.0
aI544
aI321
aa(lp3986
F14.0
aF15.25
aI599
aI225
aa(lp3987
F14.25
aF10.0
aI23
aI1006
aa(lp3988
F14.25
aF10.25
aI44
aI984
aa(lp3989
F14.25
aF10.5
aI65
aI961
aa(lp3990
F14.25
aF10.75
aI87
aI937
aa(lp3991
F14.25
aF11.0
aI108
aI914
aa(lp3992
F14.25
aF11.5
aI153
aI861
aa(lp3993
F14.25
aF12.0
aI199
aI805
aa(lp3994
F14.25
aF12.5
aI247
aI744
aa(lp3995
F14.25
aF12.75
aI272
aI711
aa(lp3996
F14.25
aF13.0
aI298
aI675
aa(lp3997
F14.25
aF13.25
aI325
aI638
aa(lp3998
F14.25
aF13.5
aI353
aI598
aa(lp3999
F14.25
aF13.75
aI382
aI555
aa(lp4000
F14.25
aF14.0
aI414
aI507
aa(lp4001
F14.25
aF14.25
aI447
aI456
aa(lp4002
F14.25
aF14.5
aI484
aI397
aa(lp4003
F14.25
aF14.75
aI528
aI324
aa(lp4004
F14.25
aF15.0
aI580
aI234
aa(lp4005
F14.25
aF15.25
aI675
aI58
aa(lp4006
F14.5
aF9.75
aI11
aI996
aa(lp4007
F14.5
aF10.0
aI32
aI974
aa(lp4008
F14.5
aF10.25
aI53
aI952
aa(lp4009
F14.5
aF10.5
aI74
aI929
aa(lp4010
F14.5
aF10.75
aI96
aI905
aa(lp4011
F14.5
aF11.25
aI140
aI854
aa(lp4012
F14.5
aF11.75
aI186
aI799
aa(lp4013
F14.5
aF12.0
aI209
aI770
aa(lp4014
F14.5
aF12.25
aI234
aI738
aa(lp4015
F14.5
aF12.5
aI258
aI707
aa(lp4016
F14.5
aF12.75
aI284
aI672
aa(lp4017
F14.5
aF13.0
aI311
aI634
aa(lp4018
F14.5
aF13.25
aI339
aI595
aa(lp4019
F14.5
aF13.5
aI368
aI553
aa(lp4020
F14.5
aF13.75
aI399
aI506
aa(lp4021
F14.5
aF14.0
aI433
aI454
aa(lp4022
F14.5
aF14.25
aI469
aI397
aa(lp4023
F14.5
aF14.5
aI511
aI328
aa(lp4024
F14.5
aF14.75
aI564
aI237
aa(lp4025
F14.5
aF15.0
aI650
aI79
aa(lp4026
F14.75
aF9.75
aI20
aI964
aa(lp4027
F14.75
aF10.0
aI41
aI942
aa(lp4028
F14.75
aF10.25
aI62
aI920
aa(lp4029
F14.75
aF11.25
aI150
aI820
aa(lp4030
F14.75
aF11.5
aI173
aI792
aa(lp4031
F14.75
aF11.75
aI197
aI762
aa(lp4032
F14.75
aF12.0
aI221
aI732
aa(lp4033
F14.75
aF12.25
aI246
aI699
aa(lp4034
F14.75
aF12.5
aI271
aI666
aa(lp4035
F14.75
aF12.75
aI298
aI629
aa(lp4036
F14.75
aF13.0
aI326
aI590
aa(lp4037
F14.75
aF13.25
aI355
aI548
aa(lp4038
F14.75
aF13.5
aI385
aI504
aa(lp4039
F14.75
aF13.75
aI419
aI452
aa(lp4040
F14.75
aF14.0
aI455
aI395
aa(lp4041
F14.75
aF14.25
aI498
aI324
aa(lp4042
F14.75
aF14.5
aI549
aI237
aa(lp4043
F14.75
aF14.75
aI631
aI88
aa(lp4044
F15.0
aF9.75
aI30
aI931
aa(lp4045
F15.0
aF10.0
aI51
aI909
aa(lp4046
F15.0
aF10.25
aI72
aI886
aa(lp4047
F15.0
aF10.5
aI94
aI862
aa(lp4048
F15.0
aF10.75
aI116
aI837
aa(lp4049
F15.0
aF11.25
aI161
aI784
aa(lp4050
F15.0
aF11.5
aI185
aI754
aa(lp4051
F15.0
aF11.75
aI209
aI724
aa(lp4052
F15.0
aF12.0
aI234
aI692
aa(lp4053
F15.0
aF12.25
aI259
aI659
aa(lp4054
F15.0
aF12.5
aI286
aI622
aa(lp4055
F15.0
aF12.75
aI313
aI585
aa(lp4056
F15.0
aF13.25
aI374
aI496
aa(lp4057
F15.0
aF13.5
aI407
aI446
aa(lp4058
F15.0
aF13.75
aI443
aI389
aa(lp4059
F15.0
aF14.0
aI485
aI321
aa(lp4060
F15.0
aF14.25
aI536
aI234
aa(lp4061
F15.0
aF14.5
aI621
aI79
aa(lp4062
F15.25
aF10.0
aI62
aI874
aa(lp4063
F15.25
aF10.25
aI83
aI851
aa(lp4064
F15.25
aF10.5
aI105
aI826
aa(lp4065
F15.25
aF11.0
aI150
aI774
aa(lp4066
F15.25
aF11.25
aI174
aI745
aa(lp4067
F15.25
aF11.5
aI198
aI715
aa(lp4068
F15.25
aF12.0
aI248
aI650
aa(lp4069
F15.25
aF12.25
aI274
aI615
aa(lp4070
F15.25
aF12.5
aI302
aI576
aa(lp4071
F15.25
aF12.75
aI331
aI535
aa(lp4072
F15.25
aF13.0
aI362
aI489
aa(lp4073
F15.25
aF13.25
aI395
aI439
aa(lp4074
F15.25
aF13.5
aI432
aI382
aa(lp4075
F15.25
aF13.75
aI473
aI315
aa(lp4076
F15.25
aF14.0
aI526
aI225
aa(lp4077
F15.25
aF14.25
aI617
aI58
aa(lp4078
F15.5
aF9.25
aI10
aI905
aa(lp4079
F15.5
aF9.5
aI30
aI885
aa(lp4080
F15.5
aF9.75
aI52
aI861
aa(lp4081
F15.5
aF10.0
aI73
aI839
aa(lp4082
F15.5
aF10.25
aI95
aI814
aa(lp4083
F15.5
aF10.75
aI140
aI762
aa(lp4084
F15.5
aF11.0
aI164
aI733
aa(lp4085
F15.5
aF11.25
aI187
aI705
aa(lp4086
F15.5
aF11.5
aI212
aI673
aa(lp4087
F15.5
aF11.75
aI237
aI641
aa(lp4088
F15.5
aF12.0
aI264
aI604
aa(lp4089
F15.5
aF12.25
aI292
aI566
aa(lp4090
F15.5
aF12.75
aI351
aI481
aa(lp4091
F15.5
aF13.0
aI385
aI430
aa(lp4092
F15.5
aF13.25
aI421
aI374
aa(lp4093
F15.5
aF13.5
aI464
aI304
aa(lp4094
F15.5
aF13.75
aI516
aI215
aa(lp4095
F15.75
aF9.0
aI1
aI890
aa(lp4096
F15.75
aF9.25
aI22
aI869
aa(lp4097
F15.75
aF9.5
aI43
aI847
aa(lp4098
F15.75
aF9.75
aI64
aI825
aa(lp4099
F15.75
aF10.0
aI86
aI800
aa(lp4100
F15.75
aF10.25
aI108
aI776
aa(lp4101
F15.75
aF10.5
aI131
aI749
aa(lp4102
F15.75
aF10.75
aI154
aI721
aa(lp4103
F15.75
aF11.0
aI178
aI692
aa(lp4104
F15.75
aF11.25
aI202
aI662
aa(lp4105
F15.75
aF11.5
aI228
aI628
aa(lp4106
F15.75
aF11.75
aI255
aI592
aa(lp4107
F15.75
aF12.0
aI282
aI555
aa(lp4108
F15.75
aF12.25
aI311
aI514
aa(lp4109
F15.75
aF12.5
aI342
aI469
aa(lp4110
F15.75
aF12.75
aI376
aI418
aa(lp4111
F15.75
aF13.0
aI412
aI362
aa(lp4112
F15.75
aF13.25
aI455
aI292
aa(lp4113
F15.75
aF13.5
aI509
aI200
aa(lp4114
F16.0
aF9.0
aI14
aI853
aa(lp4115
F16.0
aF9.25
aI34
aI833
aa(lp4116
F16.0
aF9.5
aI56
aI809
aa(lp4117
F16.0
aF9.75
aI78
aI785
aa(lp4118
F16.0
aF10.0
aI99
aI762
aa(lp4119
F16.0
aF10.25
aI122
aI735
aa(lp4120
F16.0
aF10.5
aI145
aI708
aa(lp4121
F16.0
aF10.75
aI169
aI679
aa(lp4122
F16.0
aF11.0
aI194
aI647
aa(lp4123
F16.0
aF11.25
aI219
aI615
aa(lp4124
F16.0
aF11.5
aI246
aI579
aa(lp4125
F16.0
aF11.75
aI273
aI543
aa(lp4126
F16.0
aF12.0
aI302
aI502
aa(lp4127
F16.0
aF12.25
aI333
aI457
aa(lp4128
F16.0
aF12.5
aI367
aI406
aa(lp4129
F16.0
aF13.0
aI449
aI275
aa(lp4130
F16.0
aF13.25
aI506
aI177
aa(lp4131
F16.25
aF8.75
aI6
aI837
aa(lp4132
F16.25
aF9.0
aI27
aI815
aa(lp4133
F16.25
aF9.5
aI70
aI769
aa(lp4134
F16.25
aF9.75
aI92
aI745
aa(lp4135
F16.25
aF10.0
aI115
aI718
aa(lp4136
F16.25
aF10.25
aI138
aI691
aa(lp4137
F16.25
aF10.5
aI161
aI664
aa(lp4138
F16.25
aF11.0
aI212
aI599
aa(lp4139
F16.25
aF11.25
aI238
aI565
aa(lp4140
F16.25
aF11.5
aI266
aI527
aa(lp4141
F16.25
aF11.75
aI295
aI486
aa(lp4142
F16.25
aF12.0
aI327
aI439
aa(lp4143
F16.25
aF12.25
aI361
aI388
aa(lp4144
F16.25
aF12.5
aI399
aI329
aa(lp4145
F16.25
aF12.75
aI446
aI252
aa(lp4146
F16.25
aF13.0
aI508
aI144
aa(lp4147
F16.5
aF8.5
aI0
aI818
aa(lp4148
F16.5
aF8.75
aI21
aI796
aa(lp4149
F16.5
aF9.0
aI42
aI774
aa(lp4150
F16.5
aF9.25
aI63
aI752
aa(lp4151
F16.5
aF9.5
aI85
aI728
aa(lp4152
F16.5
aF9.75
aI108
aI701
aa(lp4153
F16.5
aF10.0
aI131
aI674
aa(lp4154
F16.5
aF10.25
aI155
aI646
aa(lp4155
F16.5
aF10.5
aI179
aI616
aa(lp4156
F16.5
aF10.75
aI205
aI582
aa(lp4157
F16.5
aF11.0
aI232
aI547
aa(lp4158
F16.5
aF11.25
aI260
aI509
aa(lp4159
F16.5
aF11.5
aI289
aI468
aa(lp4160
F16.5
aF11.75
aI321
aI422
aa(lp4161
F16.5
aF12.0
aI356
aI369
aa(lp4162
F16.5
aF12.25
aI396
aI306
aa(lp4163
F16.5
aF12.5
aI444
aI226
aa(lp4164
F16.5
aF12.75
aI518
aI95
aa(lp4165
F16.75
aF8.5
aI15
aI777
aa(lp4166
F16.75
aF8.75
aI36
aI755
aa(lp4167
F16.75
aF9.5
aI102
aI683
aa(lp4168
F16.75
aF9.75
aI125
aI656
aa(lp4169
F16.75
aF10.0
aI149
aI627
aa(lp4170
F16.75
aF10.25
aI174
aI596
aa(lp4171
F16.75
aF10.75
aI226
aI529
aa(lp4172
F16.75
aF11.0
aI255
aI489
aa(lp4173
F16.75
aF11.25
aI285
aI447
aa(lp4174
F16.75
aF11.5
aI317
aI400
aa(lp4175
F16.75
aF11.75
aI353
aI345
aa(lp4176
F16.75
aF12.0
aI395
aI279
aa(lp4177
F16.75
aF12.25
aI447
aI191
aa(lp4178
F17.0
aF8.25
aI11
aI755
aa(lp4179
F17.0
aF8.5
aI32
aI733
aa(lp4180
F17.0
aF8.75
aI53
aI711
aa(lp4181
F17.0
aF9.0
aI75
aI687
aa(lp4182
F17.0
aF9.5
aI121
aI634
aa(lp4183
F17.0
aF9.75
aI144
aI607
aa(lp4184
F17.0
aF10.0
aI169
aI576
aa(lp4185
F17.0
aF10.5
aI222
aI507
aa(lp4186
F17.0
aF10.75
aI251
aI467
aa(lp4187
F17.0
aF11.0
aI281
aI425
aa(lp4188
F17.0
aF11.25
aI315
aI375
aa(lp4189
F17.0
aF11.5
aI352
aI318
aa(lp4190
F17.0
aF12.0
aI457
aI143
aa(lp4191
F17.25
aF8.0
aI7
aI732
aa(lp4192
F17.25
aF8.25
aI28
aI711
aa(lp4193
F17.25
aF8.5
aI50
aI687
aa(lp4194
F17.25
aF8.75
aI72
aI663
aa(lp4195
F17.25
aF9.0
aI94
aI639
aa(lp4196
F17.25
aF9.25
aI117
aI612
aa(lp4197
F17.25
aF9.5
aI141
aI583
aa(lp4198
F17.25
aF9.75
aI166
aI552
aa(lp4199
F17.25
aF10.0
aI192
aI519
aa(lp4200
F17.25
aF10.25
aI220
aI482
aa(lp4201
F17.25
aF10.5
aI249
aI442
aa(lp4202
F17.25
aF10.75
aI280
aI398
aa(lp4203
F17.25
aF11.0
aI315
aI346
aa(lp4204
F17.25
aF11.25
aI354
aI285
aa(lp4205
F17.25
aF11.5
aI402
aI207
aa(lp4206
F17.25
aF11.75
aI484
aI60
aa(lp4207
F17.5
aF7.75
aI5
aI707
aa(lp4208
F17.5
aF8.0
aI26
aI685
aa(lp4209
F17.5
aF8.25
aI47
aI663
aa(lp4210
F17.5
aF8.5
aI69
aI639
aa(lp4211
F17.5
aF8.75
aI92
aI613
aa(lp4212
F17.5
aF9.25
aI140
aI556
aa(lp4213
F17.5
aF9.5
aI165
aI525
aa(lp4214
F17.5
aF9.75
aI191
aI492
aa(lp4215
F17.5
aF10.0
aI219
aI454
aa(lp4216
F17.5
aF10.25
aI249
aI413
aa(lp4217
F17.5
aF10.5
aI281
aI367
aa(lp4218
F17.5
aF10.75
aI317
aI313
aa(lp4219
F17.5
aF11.0
aI360
aI245
aa(lp4220
F17.5
aF11.25
aI415
aI152
aa(lp4221
F17.75
aF7.5
aI4
aI679
aa(lp4222
F17.75
aF7.75
aI25
aI658
aa(lp4223
F17.75
aF8.0
aI46
aI636
aa(lp4224
F17.75
aF8.25
aI68
aI612
aa(lp4225
F17.75
aF8.5
aI91
aI586
aa(lp4226
F17.75
aF8.75
aI114
aI559
aa(lp4227
F17.75
aF9.0
aI139
aI529
aa(lp4228
F17.75
aF9.25
aI165
aI496
aa(lp4229
F17.75
aF9.5
aI192
aI461
aa(lp4230
F17.75
aF9.75
aI220
aI423
aa(lp4231
F17.75
aF10.0
aI251
aI380
aa(lp4232
F17.75
aF10.25
aI284
aI332
aa(lp4233
F17.75
aF10.5
aI323
aI272
aa(lp4234
F17.75
aF10.75
aI371
aI194
aa(lp4235
F17.75
aF11.0
aI470
aI14
aa(lp4236
F18.0
aF7.25
aI4
aI650
aa(lp4237
F18.0
aF7.5
aI25
aI629
aa(lp4238
F18.0
aF7.75
aI47
aI605
aa(lp4239
F18.0
aF8.0
aI69
aI581
aa(lp4240
F18.0
aF8.25
aI92
aI555
aa(lp4241
F18.0
aF8.5
aI115
aI528
aa(lp4242
F18.0
aF8.75
aI141
aI496
aa(lp4243
F18.0
aF9.0
aI166
aI465
aa(lp4244
F18.0
aF9.25
aI194
aI428
aa(lp4245
F18.0
aF9.5
aI224
aI387
aa(lp4246
F18.0
aF9.75
aI256
aI341
aa(lp4247
F18.0
aF10.0
aI293
aI286
aa(lp4248
F18.0
aF10.25
aI336
aI218
aa(lp4249
F18.0
aF10.5
aI398
aI112
aa(lp4250
F18.25
aF7.0
aI6
aI617
aa(lp4251
F18.25
aF7.25
aI27
aI596
aa(lp4252
F18.25
aF7.5
aI48
aI574
aa(lp4253
F18.25
aF7.75
aI71
aI548
aa(lp4254
F18.25
aF8.0
aI94
aI522
aa(lp4255
F18.25
aF8.25
aI119
aI492
aa(lp4256
F18.25
aF8.5
aI143
aI463
aa(lp4257
F18.25
aF8.75
aI171
aI426
aa(lp4258
F18.25
aF9.25
aI230
aI346
aa(lp4259
F18.25
aF9.5
aI265
aI295
aa(lp4260
F18.25
aF9.75
aI306
aI231
aa(lp4261
F18.25
aF10.0
aI360
aI142
aa(lp4262
F18.5
aF6.75
aI9
aI583
aa(lp4263
F18.5
aF7.0
aI31
aI560
aa(lp4264
F18.5
aF7.25
aI52
aI538
aa(lp4265
F18.5
aF7.5
aI75
aI512
aa(lp4266
F18.5
aF7.75
aI99
aI484
aa(lp4267
F18.5
aF8.0
aI124
aI454
aa(lp4268
F18.5
aF8.25
aI149
aI423
aa(lp4269
F18.5
aF8.5
aI177
aI386
aa(lp4270
F18.5
aF8.75
aI208
aI343
aa(lp4271
F18.5
aF9.0
aI241
aI296
aa(lp4272
F18.5
aF9.25
aI279
aI239
aa(lp4273
F18.5
aF9.5
aI331
aI153
aa(lp4274
F18.75
aF6.5
aI15
aI544
aa(lp4275
F18.75
aF6.75
aI36
aI522
aa(lp4276
F18.75
aF7.0
aI58
aI498
aa(lp4277
F18.75
aF7.25
aI81
aI472
aa(lp4278
F18.75
aF7.5
aI106
aI442
aa(lp4279
F18.75
aF7.75
aI132
aI410
aa(lp4280
F18.75
aF8.0
aI158
aI377
aa(lp4281
F18.75
aF8.25
aI189
aI334
aa(lp4282
F18.75
aF8.5
aI221
aI290
aa(lp4283
F18.75
aF8.75
aI259
aI233
aa(lp4284
F18.75
aF9.0
aI306
aI157
aa(lp4285
F19.0
aF6.0
aI2
aI522
aa(lp4286
F19.0
aF6.25
aI22
aI502
aa(lp4287
F19.0
aF6.5
aI45
aI477
aa(lp4288
F19.0
aF6.75
aI68
aI451
aa(lp4289
F19.0
aF7.0
aI91
aI425
aa(lp4290
F19.0
aF7.25
aI117
aI393
aa(lp4291
F19.0
aF7.5
aI143
aI360
aa(lp4292
F19.0
aF7.75
aI173
aI320
aa(lp4293
F19.0
aF8.0
aI205
aI275
aa(lp4294
F19.0
aF8.25
aI242
aI220
aa(lp4295
F19.0
aF8.5
aI291
aI141
aa(lp4296
F19.25
aF5.75
aI12
aI475
aa(lp4297
F19.25
aF6.0
aI34
aI451
aa(lp4298
F19.25
aF6.25
aI56
aI428
aa(lp4299
F19.25
aF6.5
aI80
aI400
aa(lp4300
F19.25
aF6.75
aI105
aI370
aa(lp4301
F19.25
aF7.25
aI160
aI299
aa(lp4302
F19.25
aF7.5
aI194
aI251
aa(lp4303
F19.25
aF7.75
aI232
aI194
aa(lp4304
F19.25
aF8.0
aI286
aI105
aa(lp4305
F19.5
aF5.25
aI5
aI442
aa(lp4306
F19.5
aF5.75
aI48
aI397
aa(lp4307
F19.5
aF6.0
aI72
aI369
aa(lp4308
F19.5
aF6.25
aI97
aI339
aa(lp4309
F19.5
aF6.5
aI124
aI305
aa(lp4310
F19.5
aF6.75
aI154
aI265
aa(lp4311
F19.5
aF7.0
aI189
aI214
aa(lp4312
F19.5
aF7.25
aI231
aI150
aa(lp4313
F19.75
aF4.75
aI2
aI402
aa(lp4314
F19.75
aF5.0
aI23
aI380
aa(lp4315
F19.75
aF5.25
aI46
aI355
aa(lp4316
F19.75
aF5.5
aI69
aI329
aa(lp4317
F19.75
aF5.75
aI95
aI297
aa(lp4318
F19.75
aF6.0
aI123
aI261
aa(lp4319
F19.75
aF6.25
aI155
aI217
aa(lp4320
F19.75
aF6.75
aI252
aI62
aa(lp4321
F20.0
aF4.25
aI4
aI352
aa(lp4322
F20.0
aF4.5
aI26
aI328
aa(lp4323
F20.0
aF4.75
aI48
aI305
aa(lp4324
F20.0
aF5.0
aI73
aI275
aa(lp4325
F20.0
aF5.25
aI99
aI243
aa(lp4326
F20.0
aF5.5
aI130
aI201
aa(lp4327
F20.0
aF5.75
aI168
aI145
aa(lp4328
F20.0
aF6.0
aI233
aI35
aa(lp4329
F20.25
aF3.75
aI15
aI285
aa(lp4330
F20.25
aF4.0
aI36
aI263
aa(lp4331
F20.25
aF4.25
aI62
aI232
aa(lp4332
F20.25
aF4.5
aI89
aI198
aa(lp4333
F20.25
aF4.75
aI121
aI154
aa(lp4334
F20.25
aF5.0
aI165
aI86
aa(lp4335
F20.5
aF3.0
aI17
aI216
aa(lp4336
F20.5
aF3.25
aI40
aI190
aa(lp4337
F20.5
aF3.5
aI67
aI157
aa(lp4338
F20.5
aF3.75
aI100
aI111
aa(lp4339
F20.75
aF1.75
aI7
aI131
aa(lp4340
F20.75
aF2.0
aI30
aI105
aa(lp4341
F20.75
aF2.25
aI63
aI60
aa.